Component: ARM Compiler 5.06 update 6 (build 750) Tool: armlink [4d35ed]

==============================================================================

Section Cross References

    startup_stm32l051xx.o(RESET) refers to startup_stm32l051xx.o(STACK) for __initial_sp
    startup_stm32l051xx.o(RESET) refers to startup_stm32l051xx.o(.text) for Reset_Handler
    startup_stm32l051xx.o(RESET) refers to stm32l0xx_it.o(i.NMI_Handler) for NMI_Handler
    startup_stm32l051xx.o(RESET) refers to stm32l0xx_it.o(i.HardFault_Handler) for HardFault_Handler
    startup_stm32l051xx.o(RESET) refers to stm32l0xx_it.o(i.SVC_Handler) for SVC_Handler
    startup_stm32l051xx.o(RESET) refers to stm32l0xx_it.o(i.PendSV_Handler) for PendSV_Handler
    startup_stm32l051xx.o(RESET) refers to stm32l0xx_it.o(i.SysTick_Handler) for SysTick_Handler
    startup_stm32l051xx.o(RESET) refers to stm32l0xx_it.o(i.RTC_IRQHandler) for RTC_IRQHandler
    startup_stm32l051xx.o(RESET) refers to stm32l0xx_it.o(i.EXTI0_1_IRQHandler) for EXTI0_1_IRQHandler
    startup_stm32l051xx.o(RESET) refers to stm32l0xx_it.o(i.EXTI2_3_IRQHandler) for EXTI2_3_IRQHandler
    startup_stm32l051xx.o(RESET) refers to stm32l0xx_it.o(i.EXTI4_15_IRQHandler) for EXTI4_15_IRQHandler
    startup_stm32l051xx.o(RESET) refers to stm32l0xx_it.o(i.USART1_IRQHandler) for USART1_IRQHandler
    startup_stm32l051xx.o(.text) refers to system_stm32l0xx.o(i.SystemInit) for SystemInit
    startup_stm32l051xx.o(.text) refers to entry.o(.ARM.Collect$$$$00000000) for __main
    adxl362.o(i.ADXL362BurstRead) refers to stm32l0xx_hal_gpio.o(i.HAL_GPIO_WritePin) for HAL_GPIO_WritePin
    adxl362.o(i.ADXL362BurstRead) refers to spi.o(i.SpiFunction) for SpiFunction
    adxl362.o(i.ADXL362BurstWrite) refers to stm32l0xx_hal_gpio.o(i.HAL_GPIO_WritePin) for HAL_GPIO_WritePin
    adxl362.o(i.ADXL362BurstWrite) refers to spi.o(i.SpiFunction) for SpiFunction
    adxl362.o(i.ADXL362FifoEntries) refers to adxl362.o(i.ADXL362RegisterRead) for ADXL362RegisterRead
    adxl362.o(i.ADXL362FifoProcess) refers to memseta.o(.text) for __aeabi_memclr
    adxl362.o(i.ADXL362FifoProcess) refers to uidiv.o(.text) for __aeabi_uidivmod
    adxl362.o(i.ADXL362FifoProcess) refers to idiv.o(.text) for __aeabi_idivmod
    adxl362.o(i.ADXL362FifoProcess) refers to adxl362.o(.bss) for .bss
    adxl362.o(i.ADXL362FifoProcess) refers to adxl362.o(.data) for .data
    adxl362.o(i.ADXL362FifoRead) refers to stm32l0xx_hal_gpio.o(i.HAL_GPIO_WritePin) for HAL_GPIO_WritePin
    adxl362.o(i.ADXL362FifoRead) refers to spi.o(i.SpiFunction) for SpiFunction
    adxl362.o(i.ADXL362RegisterRead) refers to stm32l0xx_hal_gpio.o(i.HAL_GPIO_WritePin) for HAL_GPIO_WritePin
    adxl362.o(i.ADXL362RegisterRead) refers to spi.o(i.SpiFunction) for SpiFunction
    adxl362.o(i.ADXL362RegisterWrite) refers to stm32l0xx_hal_gpio.o(i.HAL_GPIO_WritePin) for HAL_GPIO_WritePin
    adxl362.o(i.ADXL362RegisterWrite) refers to spi.o(i.SpiFunction) for SpiFunction
    adxl362.o(i.ADXL362_Init) refers to memseta.o(.text) for __aeabi_memclr
    adxl362.o(i.ADXL362_Init) refers to adxl362.o(i.ADXL362RegisterWrite) for ADXL362RegisterWrite
    adxl362.o(i.ADXL362_Init) refers to stm32l0xx_hal.o(i.HAL_Delay) for HAL_Delay
    adxl362.o(i.ADXL362_Init) refers to adxl362.o(i.ADXL362RegisterRead) for ADXL362RegisterRead
    adxl362.o(i.ADXL362_Init) refers to main.o(i.Error_Handler) for Error_Handler
    adxl362.o(i.ADXL362_Init) refers to adxl362.o(.bss) for .bss
    adxl362.o(i.ADXL362_Init) refers to main.o(.data) for ErrorIndex
    adxl362.o(i.ADXL362_ReInit) refers to adxl362.o(i.ADXL362RegisterWrite) for ADXL362RegisterWrite
    adxl362.o(i.ADXL362_ReInit) refers to stm32l0xx_hal.o(i.HAL_Delay) for HAL_Delay
    cc1101.o(i.CC1101ClrRXBuff) refers to cc1101.o(i.CC1101WriteCmd) for CC1101WriteCmd
    cc1101.o(i.CC1101ClrTXBuff) refers to cc1101.o(i.CC1101WriteCmd) for CC1101WriteCmd
    cc1101.o(i.CC1101GetRXCnt) refers to cc1101.o(i.CC1101ReadStatus) for CC1101ReadStatus
    cc1101.o(i.CC1101Init) refers to cc1101.o(i.CC1101_GDO_Init) for CC1101_GDO_Init
    cc1101.o(i.CC1101Init) refers to cc1101.o(i.CC1101Reset) for CC1101Reset
    cc1101.o(i.CC1101Init) refers to cc1101.o(i.CC1101WriteReg) for CC1101WriteReg
    cc1101.o(i.CC1101Init) refers to cc1101.o(i.CC1101SetAddress) for CC1101SetAddress
    cc1101.o(i.CC1101Init) refers to cc1101.o(i.CC1101SetSYNC) for CC1101SetSYNC
    cc1101.o(i.CC1101Init) refers to cc1101.o(i.CC1101WriteMultiReg) for CC1101WriteMultiReg
    cc1101.o(i.CC1101Init) refers to cc1101.o(.constdata) for .constdata
    cc1101.o(i.CC1101Init) refers to cc1101.o(.data) for .data
    cc1101.o(i.CC1101ReadMultiReg) refers to stm32l0xx_hal_gpio.o(i.HAL_GPIO_WritePin) for HAL_GPIO_WritePin
    cc1101.o(i.CC1101ReadMultiReg) refers to spi.o(i.SPI_ExchangeByte) for SPI_ExchangeByte
    cc1101.o(i.CC1101ReadRSSI) refers to cc1101.o(i.CC1101ReadStatus) for CC1101ReadStatus
    cc1101.o(i.CC1101ReadReg) refers to stm32l0xx_hal_gpio.o(i.HAL_GPIO_WritePin) for HAL_GPIO_WritePin
    cc1101.o(i.CC1101ReadReg) refers to spi.o(i.SPI_ExchangeByte) for SPI_ExchangeByte
    cc1101.o(i.CC1101ReadStatus) refers to stm32l0xx_hal_gpio.o(i.HAL_GPIO_WritePin) for HAL_GPIO_WritePin
    cc1101.o(i.CC1101ReadStatus) refers to spi.o(i.SPI_ExchangeByte) for SPI_ExchangeByte
    cc1101.o(i.CC1101RecPacket) refers to cc1101.o(i.CC1101GetRXCnt) for CC1101GetRXCnt
    cc1101.o(i.CC1101RecPacket) refers to cc1101.o(i.CC1101ReadReg) for CC1101ReadReg
    cc1101.o(i.CC1101RecPacket) refers to cc1101.o(i.CC1101ReadMultiReg) for CC1101ReadMultiReg
    cc1101.o(i.CC1101RecPacket) refers to cc1101.o(i.CC1101ClrRXBuff) for CC1101ClrRXBuff
    cc1101.o(i.CC1101RecvHandler) refers to stm32l0xx_hal.o(i.HAL_Delay) for HAL_Delay
    cc1101.o(i.CC1101RecvHandler) refers to cc1101.o(i.CC1101RecPacket) for CC1101RecPacket
    cc1101.o(i.CC1101RecvHandler) refers to cc1101.o(i.CC1101CalcRSSI_dBm) for CC1101CalcRSSI_dBm
    cc1101.o(i.CC1101RecvHandler) refers to cc1101.o(.data) for .data
    cc1101.o(i.CC1101RecvHandler) refers to cc1101.o(.bss) for .bss
    cc1101.o(i.CC1101RecvHandler) refers to main.o(.bss) for device
    cc1101.o(i.CC1101Reset) refers to stm32l0xx_hal_gpio.o(i.HAL_GPIO_WritePin) for HAL_GPIO_WritePin
    cc1101.o(i.CC1101Reset) refers to stm32l0xx_hal.o(i.HAL_Delay) for HAL_Delay
    cc1101.o(i.CC1101Reset) refers to stm32l0xx_hal_gpio.o(i.HAL_GPIO_ReadPin) for HAL_GPIO_ReadPin
    cc1101.o(i.CC1101Reset) refers to cc1101.o(i.CC1101WriteCmd) for CC1101WriteCmd
    cc1101.o(i.CC1101Send3AxisHandler) refers to stm32l0xx_hal_crc.o(i.HAL_CRC_Calculate) for HAL_CRC_Calculate
    cc1101.o(i.CC1101Send3AxisHandler) refers to cc1101.o(i.RFIDInitial) for RFIDInitial
    cc1101.o(i.CC1101Send3AxisHandler) refers to cc1101.o(i.CC1101SendPacket) for CC1101SendPacket
    cc1101.o(i.CC1101Send3AxisHandler) refers to cc1101.o(i.CC1101WriteCmd) for CC1101WriteCmd
    cc1101.o(i.CC1101Send3AxisHandler) refers to stm32l0xx_hal.o(i.HAL_Delay) for HAL_Delay
    cc1101.o(i.CC1101Send3AxisHandler) refers to memseta.o(.text) for __aeabi_memclr4
    cc1101.o(i.CC1101Send3AxisHandler) refers to cc1101.o(.bss) for .bss
    cc1101.o(i.CC1101Send3AxisHandler) refers to adxl362.o(.bss) for fifo
    cc1101.o(i.CC1101Send3AxisHandler) refers to main.o(.bss) for device
    cc1101.o(i.CC1101Send3AxisHandler) refers to crc.o(.bss) for hcrc
    cc1101.o(i.CC1101SendHandler) refers to stm32l0xx_hal_crc.o(i.HAL_CRC_Calculate) for HAL_CRC_Calculate
    cc1101.o(i.CC1101SendHandler) refers to cc1101.o(i.RFIDInitial) for RFIDInitial
    cc1101.o(i.CC1101SendHandler) refers to cc1101.o(i.CC1101SendPacket) for CC1101SendPacket
    cc1101.o(i.CC1101SendHandler) refers to cc1101.o(i.CC1101WriteCmd) for CC1101WriteCmd
    cc1101.o(i.CC1101SendHandler) refers to cc1101.o(i.CC1101_GDO_DeInit) for CC1101_GDO_DeInit
    cc1101.o(i.CC1101SendHandler) refers to memseta.o(.text) for __aeabi_memclr4
    cc1101.o(i.CC1101SendHandler) refers to main.o(.bss) for device
    cc1101.o(i.CC1101SendHandler) refers to cc1101.o(.bss) for .bss
    cc1101.o(i.CC1101SendHandler) refers to rand_bytes_gen.o(.bss) for RandomString
    cc1101.o(i.CC1101SendHandler) refers to adxl362.o(.bss) for step
    cc1101.o(i.CC1101SendHandler) refers to main.o(.data) for resetCnt
    cc1101.o(i.CC1101SendHandler) refers to crc.o(.bss) for hcrc
    cc1101.o(i.CC1101SendPacket) refers to cc1101.o(i.CC1101ReadReg) for CC1101ReadReg
    cc1101.o(i.CC1101SendPacket) refers to cc1101.o(i.CC1101ClrTXBuff) for CC1101ClrTXBuff
    cc1101.o(i.CC1101SendPacket) refers to cc1101.o(i.CC1101WriteReg) for CC1101WriteReg
    cc1101.o(i.CC1101SendPacket) refers to cc1101.o(i.CC1101WriteMultiReg) for CC1101WriteMultiReg
    cc1101.o(i.CC1101SendPacket) refers to cc1101.o(i.CC1101SetTRMode) for CC1101SetTRMode
    cc1101.o(i.CC1101SendPacket) refers to uidiv.o(.text) for __aeabi_uidivmod
    cc1101.o(i.CC1101SendPacket) refers to cc1101.o(.data) for .data
    cc1101.o(i.CC1101SendStepHandler) refers to stm32l0xx_hal_crc.o(i.HAL_CRC_Calculate) for HAL_CRC_Calculate
    cc1101.o(i.CC1101SendStepHandler) refers to cc1101.o(i.RFIDInitial) for RFIDInitial
    cc1101.o(i.CC1101SendStepHandler) refers to cc1101.o(i.CC1101SendPacket) for CC1101SendPacket
    cc1101.o(i.CC1101SendStepHandler) refers to cc1101.o(i.CC1101WriteCmd) for CC1101WriteCmd
    cc1101.o(i.CC1101SendStepHandler) refers to stm32l0xx_hal.o(i.HAL_Delay) for HAL_Delay
    cc1101.o(i.CC1101SendStepHandler) refers to memseta.o(.text) for __aeabi_memclr4
    cc1101.o(i.CC1101SendStepHandler) refers to cc1101.o(.bss) for .bss
    cc1101.o(i.CC1101SendStepHandler) refers to main.o(.bss) for device
    cc1101.o(i.CC1101SendStepHandler) refers to adxl362.o(.bss) for yAxis
    cc1101.o(i.CC1101SendStepHandler) refers to crc.o(.bss) for hcrc
    cc1101.o(i.CC1101SetAddress) refers to cc1101.o(i.CC1101ReadReg) for CC1101ReadReg
    cc1101.o(i.CC1101SetAddress) refers to cc1101.o(i.CC1101WriteReg) for CC1101WriteReg
    cc1101.o(i.CC1101SetIdle) refers to cc1101.o(i.CC1101WriteCmd) for CC1101WriteCmd
    cc1101.o(i.CC1101SetSYNC) refers to cc1101.o(i.CC1101WriteReg) for CC1101WriteReg
    cc1101.o(i.CC1101SetTRMode) refers to cc1101.o(i.CC1101WriteReg) for CC1101WriteReg
    cc1101.o(i.CC1101SetTRMode) refers to cc1101.o(i.CC1101WriteCmd) for CC1101WriteCmd
    cc1101.o(i.CC1101SetWORMode) refers to cc1101.o(i.CC1101WriteReg) for CC1101WriteReg
    cc1101.o(i.CC1101SetWORMode) refers to cc1101.o(i.CC1101WriteCmd) for CC1101WriteCmd
    cc1101.o(i.CC1101WORInit) refers to cc1101.o(i.CC1101WriteReg) for CC1101WriteReg
    cc1101.o(i.CC1101WriteCmd) refers to stm32l0xx_hal_gpio.o(i.HAL_GPIO_WritePin) for HAL_GPIO_WritePin
    cc1101.o(i.CC1101WriteCmd) refers to spi.o(i.SPI_ExchangeByte) for SPI_ExchangeByte
    cc1101.o(i.CC1101WriteMultiReg) refers to stm32l0xx_hal_gpio.o(i.HAL_GPIO_WritePin) for HAL_GPIO_WritePin
    cc1101.o(i.CC1101WriteMultiReg) refers to spi.o(i.SPI_ExchangeByte) for SPI_ExchangeByte
    cc1101.o(i.CC1101WriteReg) refers to stm32l0xx_hal_gpio.o(i.HAL_GPIO_WritePin) for HAL_GPIO_WritePin
    cc1101.o(i.CC1101WriteReg) refers to spi.o(i.SPI_ExchangeByte) for SPI_ExchangeByte
    cc1101.o(i.CC1101_GDO_DeInit) refers to memseta.o(.text) for __aeabi_memclr4
    cc1101.o(i.CC1101_GDO_DeInit) refers to cc1101.o(i.LL_IOP_GRP1_EnableClock) for LL_IOP_GRP1_EnableClock
    cc1101.o(i.CC1101_GDO_DeInit) refers to stm32l0xx_ll_gpio.o(i.LL_GPIO_Init) for LL_GPIO_Init
    cc1101.o(i.CC1101_GDO_DeInit) refers to cc1101.o(i.__NVIC_DisableIRQ) for __NVIC_DisableIRQ
    cc1101.o(i.CC1101_GDO_Init) refers to cc1101.o(i.LL_IOP_GRP1_EnableClock) for LL_IOP_GRP1_EnableClock
    cc1101.o(i.CC1101_GDO_Init) refers to cc1101.o(i.LL_SYSCFG_SetEXTISource) for LL_SYSCFG_SetEXTISource
    cc1101.o(i.CC1101_GDO_Init) refers to cc1101.o(i.LL_GPIO_SetPinPull) for LL_GPIO_SetPinPull
    cc1101.o(i.CC1101_GDO_Init) refers to cc1101.o(i.LL_GPIO_SetPinMode) for LL_GPIO_SetPinMode
    cc1101.o(i.CC1101_GDO_Init) refers to stm32l0xx_ll_exti.o(i.LL_EXTI_Init) for LL_EXTI_Init
    cc1101.o(i.CC1101_GDO_Init) refers to cc1101.o(i.__NVIC_SetPriority) for __NVIC_SetPriority
    cc1101.o(i.CC1101_GDO_Init) refers to cc1101.o(i.__NVIC_EnableIRQ) for __NVIC_EnableIRQ
    cc1101.o(i.RFIDInitial) refers to cc1101.o(i.CC1101Init) for CC1101Init
    cc1101.o(i.RFIDInitial) refers to cc1101.o(i.CC1101SetTRMode) for CC1101SetTRMode
    cc1101.o(i.RFIDInitial) refers to cc1101.o(i.CC1101WriteCmd) for CC1101WriteCmd
    cc1101.o(i.RFIDInitial) refers to cc1101.o(i.CC1101WORInit) for CC1101WORInit
    cc1101.o(i.RFIDInitial) refers to cc1101.o(i.CC1101SetWORMode) for CC1101SetWORMode
    cc1101.o(i.RFIDInitial) refers to cc1101.o(.data) for .data
    rand_bytes_gen.o(i.RNG_Gen) refers to crypto.o(i.RNGgenBytes) for RNGgenBytes
    rand_bytes_gen.o(i.RNG_Gen) refers to crypto.o(i.RNGfree) for RNGfree
    rand_bytes_gen.o(i.RNG_Gen) refers to main.o(i.Error_Handler) for Error_Handler
    rand_bytes_gen.o(i.RNG_Gen) refers to rand_bytes_gen.o(.bss) for .bss
    rand_bytes_gen.o(i.RNG_Gen) refers to rand_bytes_gen.o(.data) for .data
    rand_bytes_gen.o(i.RNG_Init) refers to stm32l0xx_hal.o(i.HAL_GetTick) for HAL_GetTick
    rand_bytes_gen.o(i.RNG_Init) refers to rand.o(.text) for srand
    rand_bytes_gen.o(i.RNG_Init) refers to idiv.o(.text) for __aeabi_idivmod
    rand_bytes_gen.o(i.RNG_Init) refers to crypto.o(i.RNGinit) for RNGinit
    rand_bytes_gen.o(i.RNG_Init) refers to main.o(i.Error_Handler) for Error_Handler
    rand_bytes_gen.o(i.RNG_Init) refers to rand_bytes_gen.o(.data) for .data
    rand_bytes_gen.o(i.RNG_Init) refers to rand_bytes_gen.o(.bss) for .bss
    main.o(i.DATAEEPROM_Program) refers to stm32l0xx_hal_flash_ex.o(i.HAL_FLASHEx_DATAEEPROM_Unlock) for HAL_FLASHEx_DATAEEPROM_Unlock
    main.o(i.DATAEEPROM_Program) refers to stm32l0xx_hal_flash_ex.o(i.HAL_FLASHEx_DATAEEPROM_Erase) for HAL_FLASHEx_DATAEEPROM_Erase
    main.o(i.DATAEEPROM_Program) refers to stm32l0xx_hal_flash_ex.o(i.HAL_FLASHEx_DATAEEPROM_EnableFixedTimeProgram) for HAL_FLASHEx_DATAEEPROM_EnableFixedTimeProgram
    main.o(i.DATAEEPROM_Program) refers to stm32l0xx_hal_flash_ex.o(i.HAL_FLASHEx_DATAEEPROM_Program) for HAL_FLASHEx_DATAEEPROM_Program
    main.o(i.DATAEEPROM_Program) refers to main.o(i.Error_Handler) for Error_Handler
    main.o(i.DATAEEPROM_Program) refers to stm32l0xx_hal_flash_ex.o(i.HAL_FLASHEx_DATAEEPROM_DisableFixedTimeProgram) for HAL_FLASHEx_DATAEEPROM_DisableFixedTimeProgram
    main.o(i.DATAEEPROM_Program) refers to stm32l0xx_hal_flash_ex.o(i.HAL_FLASHEx_DATAEEPROM_Lock) for HAL_FLASHEx_DATAEEPROM_Lock
    main.o(i.Error_Handler) refers to main.o(i.LED_Blinking) for LED_Blinking
    main.o(i.Error_Handler) refers to main.o(.data) for .data
    main.o(i.Get_SerialNum) refers to main.o(.bss) for .bss
    main.o(i.LED_Blinking) refers to stm32l0xx_hal_gpio.o(i.HAL_GPIO_TogglePin) for HAL_GPIO_TogglePin
    main.o(i.LED_Blinking) refers to stm32l0xx_hal.o(i.HAL_Delay) for HAL_Delay
    main.o(i.Set_DeviceInfo) refers to main.o(i.DATAEEPROM_Program) for DATAEEPROM_Program
    main.o(i.Set_DeviceInfo) refers to main.o(i.Get_SerialNum) for Get_SerialNum
    main.o(i.Set_DeviceInfo) refers to usart.o(.bss) for usart
    main.o(i.Show_Message) refers to adxl362.o(i.ADXL362RegisterRead) for ADXL362RegisterRead
    main.o(i.Show_Message) refers to stm32l0xx_hal_gpio.o(i.HAL_GPIO_WritePin) for HAL_GPIO_WritePin
    main.o(i.Show_Message) refers to stm32l0xx_hal.o(i.HAL_Delay) for HAL_Delay
    main.o(i.Show_Message) refers to spi.o(i.MX_SPI1_DeInit) for MX_SPI1_DeInit
    main.o(i.Show_Message) refers to spi.o(i.MX_SPI2_DeInit) for MX_SPI2_DeInit
    main.o(i.SystemClock_Config) refers to memseta.o(.text) for __aeabi_memclr4
    main.o(i.SystemClock_Config) refers to stm32l0xx_hal_pwr.o(i.HAL_PWR_EnableBkUpAccess) for HAL_PWR_EnableBkUpAccess
    main.o(i.SystemClock_Config) refers to stm32l0xx_hal_rcc.o(i.HAL_RCC_OscConfig) for HAL_RCC_OscConfig
    main.o(i.SystemClock_Config) refers to stm32l0xx_hal_rcc.o(i.HAL_RCC_ClockConfig) for HAL_RCC_ClockConfig
    main.o(i.SystemClock_Config) refers to stm32l0xx_hal_rcc_ex.o(i.HAL_RCCEx_PeriphCLKConfig) for HAL_RCCEx_PeriphCLKConfig
    main.o(i.SystemClock_Config) refers to main.o(i.Error_Handler) for Error_Handler
    main.o(i.System_Initial) refers to usart.o(i.MX_USART1_UART_DeInit) for MX_USART1_UART_DeInit
    main.o(i.System_Initial) refers to main.o(i.Get_SerialNum) for Get_SerialNum
    main.o(i.System_Initial) refers to adxl362.o(i.ADXL362_Init) for ADXL362_Init
    main.o(i.System_Initial) refers to cc1101.o(i.RFIDInitial) for RFIDInitial
    main.o(i.System_Initial) refers to cc1101.o(i.CC1101WriteCmd) for CC1101WriteCmd
    main.o(i.System_Initial) refers to main.o(i.DATAEEPROM_Program) for DATAEEPROM_Program
    main.o(i.System_Initial) refers to main.o(.data) for .data
    main.o(i.System_Initial) refers to adxl362.o(.bss) for step
    main.o(i.System_Initial) refers to rtc.o(.data) for rtc
    main.o(i.main) refers to stm32l0xx_hal.o(i.HAL_Init) for HAL_Init
    main.o(i.main) refers to main.o(i.SystemClock_Config) for SystemClock_Config
    main.o(i.main) refers to gpio.o(i.MX_GPIO_Init) for MX_GPIO_Init
    main.o(i.main) refers to usart.o(i.MX_USART1_UART_Init) for MX_USART1_UART_Init
    main.o(i.main) refers to spi.o(i.MX_SPI1_Init) for MX_SPI1_Init
    main.o(i.main) refers to spi.o(i.MX_SPI2_Init) for MX_SPI2_Init
    main.o(i.main) refers to iwdg.o(i.MX_IWDG_Init) for MX_IWDG_Init
    main.o(i.main) refers to rtc.o(i.MX_RTC_Init) for MX_RTC_Init
    main.o(i.main) refers to crc.o(i.MX_CRC_Init) for MX_CRC_Init
    main.o(i.main) refers to main.o(i.System_Initial) for System_Initial
    main.o(i.main) refers to main.o(i.Show_Message) for Show_Message
    main.o(i.main) refers to main.o(i.DATAEEPROM_Program) for DATAEEPROM_Program
    main.o(i.main) refers to rand.o(.text) for rand
    main.o(i.main) refers to idiv.o(.text) for __aeabi_idivmod
    main.o(i.main) refers to stm32l0xx_hal.o(i.HAL_Delay) for HAL_Delay
    main.o(i.main) refers to rand_bytes_gen.o(i.RNG_Init) for RNG_Init
    main.o(i.main) refers to rand_bytes_gen.o(i.RNG_Gen) for RNG_Gen
    main.o(i.main) refers to cc1101.o(i.CC1101SendHandler) for CC1101SendHandler
    main.o(i.main) refers to stm32l0xx_hal_crc.o(i.HAL_CRC_DeInit) for HAL_CRC_DeInit
    main.o(i.main) refers to spi.o(i.MX_SPI1_DeInit) for MX_SPI1_DeInit
    main.o(i.main) refers to memseta.o(.text) for __aeabi_memclr
    main.o(i.main) refers to adxl362.o(i.ADXL362FifoRead) for ADXL362FifoRead
    main.o(i.main) refers to adxl362.o(i.ADXL362RegisterWrite) for ADXL362RegisterWrite
    main.o(i.main) refers to spi.o(i.MX_SPI2_DeInit) for MX_SPI2_DeInit
    main.o(i.main) refers to adxl362.o(i.ADXL362FifoProcess) for ADXL362FifoProcess
    main.o(i.main) refers to stm32l0xx_hal.o(i.HAL_SuspendTick) for HAL_SuspendTick
    main.o(i.main) refers to stm32l0xx_hal_pwr_ex.o(i.HAL_PWREx_EnableUltraLowPower) for HAL_PWREx_EnableUltraLowPower
    main.o(i.main) refers to stm32l0xx_hal_pwr_ex.o(i.HAL_PWREx_EnableFastWakeUp) for HAL_PWREx_EnableFastWakeUp
    main.o(i.main) refers to stm32l0xx_hal_pwr.o(i.HAL_PWR_EnterSTOPMode) for HAL_PWR_EnterSTOPMode
    main.o(i.main) refers to stm32l0xx_hal.o(i.HAL_ResumeTick) for HAL_ResumeTick
    main.o(i.main) refers to adxl362.o(.bss) for step
    main.o(i.main) refers to rtc.o(.data) for rtc
    main.o(i.main) refers to main.o(.data) for .data
    main.o(i.main) refers to crc.o(.bss) for hcrc
    gpio.o(i.MX_GPIO_Init) refers to memseta.o(.text) for __aeabi_memclr4
    gpio.o(i.MX_GPIO_Init) refers to gpio.o(i.LL_IOP_GRP1_EnableClock) for LL_IOP_GRP1_EnableClock
    gpio.o(i.MX_GPIO_Init) refers to stm32l0xx_ll_gpio.o(i.LL_GPIO_Init) for LL_GPIO_Init
    gpio.o(i.MX_GPIO_Init) refers to gpio.o(i.LL_SYSCFG_SetEXTISource) for LL_SYSCFG_SetEXTISource
    gpio.o(i.MX_GPIO_Init) refers to gpio.o(i.LL_GPIO_SetPinPull) for LL_GPIO_SetPinPull
    gpio.o(i.MX_GPIO_Init) refers to gpio.o(i.LL_GPIO_SetPinMode) for LL_GPIO_SetPinMode
    gpio.o(i.MX_GPIO_Init) refers to stm32l0xx_ll_exti.o(i.LL_EXTI_Init) for LL_EXTI_Init
    gpio.o(i.MX_GPIO_Init) refers to gpio.o(i.__NVIC_SetPriority) for __NVIC_SetPriority
    gpio.o(i.MX_GPIO_Init) refers to gpio.o(i.__NVIC_EnableIRQ) for __NVIC_EnableIRQ
    crc.o(i.MX_CRC_Init) refers to stm32l0xx_hal_crc.o(i.HAL_CRC_Init) for HAL_CRC_Init
    crc.o(i.MX_CRC_Init) refers to main.o(i.Error_Handler) for Error_Handler
    crc.o(i.MX_CRC_Init) refers to crc.o(.bss) for .bss
    rtc.o(i.HAL_RTCEx_WakeUpTimerEventCallback) refers to uidiv.o(.text) for __aeabi_uidivmod
    rtc.o(i.HAL_RTCEx_WakeUpTimerEventCallback) refers to rtc.o(.data) for .data
    rtc.o(i.HAL_RTC_MspDeInit) refers to stm32l0xx_hal_cortex.o(i.HAL_NVIC_DisableIRQ) for HAL_NVIC_DisableIRQ
    rtc.o(i.HAL_RTC_MspInit) refers to stm32l0xx_hal_cortex.o(i.HAL_NVIC_SetPriority) for HAL_NVIC_SetPriority
    rtc.o(i.HAL_RTC_MspInit) refers to stm32l0xx_hal_cortex.o(i.HAL_NVIC_EnableIRQ) for HAL_NVIC_EnableIRQ
    rtc.o(i.MX_RTC_Init) refers to stm32l0xx_hal_rtc.o(i.HAL_RTC_Init) for HAL_RTC_Init
    rtc.o(i.MX_RTC_Init) refers to main.o(i.Error_Handler) for Error_Handler
    rtc.o(i.MX_RTC_Init) refers to stm32l0xx_hal_rtc_ex.o(i.HAL_RTCEx_SetWakeUpTimer_IT) for HAL_RTCEx_SetWakeUpTimer_IT
    rtc.o(i.MX_RTC_Init) refers to rtc.o(.bss) for .bss
    spi.o(i.MX_SPI1_DeInit) refers to memseta.o(.text) for __aeabi_memclr4
    spi.o(i.MX_SPI1_DeInit) refers to spi.o(i.LL_IOP_GRP1_EnableClock) for LL_IOP_GRP1_EnableClock
    spi.o(i.MX_SPI1_DeInit) refers to stm32l0xx_ll_gpio.o(i.LL_GPIO_Init) for LL_GPIO_Init
    spi.o(i.MX_SPI1_DeInit) refers to stm32l0xx_ll_spi.o(i.LL_SPI_DeInit) for LL_SPI_DeInit
    spi.o(i.MX_SPI1_Init) refers to memseta.o(.text) for __aeabi_memclr4
    spi.o(i.MX_SPI1_Init) refers to spi.o(i.LL_IOP_GRP1_EnableClock) for LL_IOP_GRP1_EnableClock
    spi.o(i.MX_SPI1_Init) refers to stm32l0xx_ll_gpio.o(i.LL_GPIO_Init) for LL_GPIO_Init
    spi.o(i.MX_SPI1_Init) refers to stm32l0xx_ll_spi.o(i.LL_SPI_Init) for LL_SPI_Init
    spi.o(i.MX_SPI2_DeInit) refers to memseta.o(.text) for __aeabi_memclr4
    spi.o(i.MX_SPI2_DeInit) refers to spi.o(i.LL_IOP_GRP1_EnableClock) for LL_IOP_GRP1_EnableClock
    spi.o(i.MX_SPI2_DeInit) refers to stm32l0xx_ll_gpio.o(i.LL_GPIO_Init) for LL_GPIO_Init
    spi.o(i.MX_SPI2_DeInit) refers to stm32l0xx_ll_spi.o(i.LL_SPI_DeInit) for LL_SPI_DeInit
    spi.o(i.MX_SPI2_Init) refers to memseta.o(.text) for __aeabi_memclr4
    spi.o(i.MX_SPI2_Init) refers to spi.o(i.LL_IOP_GRP1_EnableClock) for LL_IOP_GRP1_EnableClock
    spi.o(i.MX_SPI2_Init) refers to stm32l0xx_ll_gpio.o(i.LL_GPIO_Init) for LL_GPIO_Init
    spi.o(i.MX_SPI2_Init) refers to stm32l0xx_ll_spi.o(i.LL_SPI_Init) for LL_SPI_Init
    spi.o(i.SpiFunction) refers to spi.o(i.SPI_ExchangeByte) for SPI_ExchangeByte
    usart.o(i.Activate_USART1_RXIT) refers to usart.o(i.LL_USART_EnableIT_RXNE) for LL_USART_EnableIT_RXNE
    usart.o(i.Activate_USART1_RXIT) refers to usart.o(i.LL_USART_EnableIT_ERROR) for LL_USART_EnableIT_ERROR
    usart.o(i.Error_Callback) refers to usart.o(i.__NVIC_DisableIRQ) for __NVIC_DisableIRQ
    usart.o(i.Error_Callback) refers to stm32l0xx_ll_usart.o(i.LL_USART_DeInit) for LL_USART_DeInit
    usart.o(i.Error_Callback) refers to usart.o(i.MX_USART1_UART_Init) for MX_USART1_UART_Init
    usart.o(i.Error_Callback) refers to usart.o(i.LL_USART_EnableIT_RXNE) for LL_USART_EnableIT_RXNE
    usart.o(i.Error_Callback) refers to usart.o(i.LL_USART_EnableIT_ERROR) for LL_USART_EnableIT_ERROR
    usart.o(i.Error_Callback) refers to usart.o(.bss) for .bss
    usart.o(i.MX_USART1_UART_DeInit) refers to memseta.o(.text) for __aeabi_memclr4
    usart.o(i.MX_USART1_UART_DeInit) refers to usart.o(i.LL_APB2_GRP1_EnableClock) for LL_APB2_GRP1_EnableClock
    usart.o(i.MX_USART1_UART_DeInit) refers to usart.o(i.LL_IOP_GRP1_EnableClock) for LL_IOP_GRP1_EnableClock
    usart.o(i.MX_USART1_UART_DeInit) refers to stm32l0xx_ll_gpio.o(i.LL_GPIO_Init) for LL_GPIO_Init
    usart.o(i.MX_USART1_UART_DeInit) refers to usart.o(i.__NVIC_DisableIRQ) for __NVIC_DisableIRQ
    usart.o(i.MX_USART1_UART_DeInit) refers to stm32l0xx_ll_usart.o(i.LL_USART_DeInit) for LL_USART_DeInit
    usart.o(i.MX_USART1_UART_Init) refers to memseta.o(.text) for __aeabi_memclr4
    usart.o(i.MX_USART1_UART_Init) refers to usart.o(i.LL_APB2_GRP1_EnableClock) for LL_APB2_GRP1_EnableClock
    usart.o(i.MX_USART1_UART_Init) refers to usart.o(i.LL_IOP_GRP1_EnableClock) for LL_IOP_GRP1_EnableClock
    usart.o(i.MX_USART1_UART_Init) refers to stm32l0xx_ll_gpio.o(i.LL_GPIO_Init) for LL_GPIO_Init
    usart.o(i.MX_USART1_UART_Init) refers to stm32l0xx_ll_usart.o(i.LL_USART_Init) for LL_USART_Init
    usart.o(i.USART_CharReception_Callback) refers to usart.o(.bss) for .bss
    stm32l0xx_it.o(i.EXTI0_1_IRQHandler) refers to stm32l0xx_it.o(i.LL_EXTI_IsActiveFlag_0_31) for LL_EXTI_IsActiveFlag_0_31
    stm32l0xx_it.o(i.EXTI0_1_IRQHandler) refers to adxl362.o(.bss) for step
    stm32l0xx_it.o(i.EXTI2_3_IRQHandler) refers to stm32l0xx_it.o(i.LL_EXTI_IsActiveFlag_0_31) for LL_EXTI_IsActiveFlag_0_31
    stm32l0xx_it.o(i.EXTI2_3_IRQHandler) refers to cc1101.o(.data) for rxCatch
    stm32l0xx_it.o(i.EXTI4_15_IRQHandler) refers to stm32l0xx_it.o(i.LL_EXTI_IsActiveFlag_0_31) for LL_EXTI_IsActiveFlag_0_31
    stm32l0xx_it.o(i.EXTI4_15_IRQHandler) refers to cc1101.o(.data) for txFiFoUnFlow
    stm32l0xx_it.o(i.RTC_IRQHandler) refers to stm32l0xx_hal_rtc_ex.o(i.HAL_RTCEx_WakeUpTimerIRQHandler) for HAL_RTCEx_WakeUpTimerIRQHandler
    stm32l0xx_it.o(i.RTC_IRQHandler) refers to rtc.o(.bss) for hrtc
    stm32l0xx_it.o(i.SysTick_Handler) refers to stm32l0xx_hal.o(i.HAL_IncTick) for HAL_IncTick
    stm32l0xx_it.o(i.USART1_IRQHandler) refers to usart.o(i.USART_CharReception_Callback) for USART_CharReception_Callback
    stm32l0xx_it.o(i.USART1_IRQHandler) refers to usart.o(i.Error_Callback) for Error_Callback
    stm32l0xx_ll_gpio.o(i.LL_GPIO_DeInit) refers to stm32l0xx_ll_gpio.o(i.LL_IOP_GRP1_ForceReset) for LL_IOP_GRP1_ForceReset
    stm32l0xx_ll_gpio.o(i.LL_GPIO_DeInit) refers to stm32l0xx_ll_gpio.o(i.LL_IOP_GRP1_ReleaseReset) for LL_IOP_GRP1_ReleaseReset
    stm32l0xx_hal_crc.o(i.CRC_Handle_16) refers to uread4.o(.text) for __aeabi_uread4
    stm32l0xx_hal_crc.o(i.CRC_Handle_8) refers to uread4.o(.text) for __aeabi_uread4
    stm32l0xx_hal_crc.o(i.HAL_CRC_Accumulate) refers to stm32l0xx_hal_crc.o(i.CRC_Handle_8) for CRC_Handle_8
    stm32l0xx_hal_crc.o(i.HAL_CRC_Accumulate) refers to stm32l0xx_hal_crc.o(i.CRC_Handle_16) for CRC_Handle_16
    stm32l0xx_hal_crc.o(i.HAL_CRC_Calculate) refers to stm32l0xx_hal_crc.o(i.CRC_Handle_8) for CRC_Handle_8
    stm32l0xx_hal_crc.o(i.HAL_CRC_Calculate) refers to stm32l0xx_hal_crc.o(i.CRC_Handle_16) for CRC_Handle_16
    stm32l0xx_hal_crc.o(i.HAL_CRC_DeInit) refers to crc.o(i.HAL_CRC_MspDeInit) for HAL_CRC_MspDeInit
    stm32l0xx_hal_crc.o(i.HAL_CRC_Init) refers to crc.o(i.HAL_CRC_MspInit) for HAL_CRC_MspInit
    stm32l0xx_hal_crc.o(i.HAL_CRC_Init) refers to stm32l0xx_hal_crc_ex.o(i.HAL_CRCEx_Polynomial_Set) for HAL_CRCEx_Polynomial_Set
    stm32l0xx_hal.o(i.HAL_DeInit) refers to stm32l0xx_hal.o(i.HAL_MspDeInit) for HAL_MspDeInit
    stm32l0xx_hal.o(i.HAL_Delay) refers to stm32l0xx_hal.o(i.HAL_GetTick) for HAL_GetTick
    stm32l0xx_hal.o(i.HAL_Delay) refers to stm32l0xx_hal.o(.data) for .data
    stm32l0xx_hal.o(i.HAL_GetTick) refers to stm32l0xx_hal.o(.data) for .data
    stm32l0xx_hal.o(i.HAL_GetTickFreq) refers to stm32l0xx_hal.o(.data) for .data
    stm32l0xx_hal.o(i.HAL_GetTickPrio) refers to stm32l0xx_hal.o(.data) for .data
    stm32l0xx_hal.o(i.HAL_IncTick) refers to stm32l0xx_hal.o(.data) for .data
    stm32l0xx_hal.o(i.HAL_Init) refers to stm32l0xx_hal.o(i.HAL_InitTick) for HAL_InitTick
    stm32l0xx_hal.o(i.HAL_Init) refers to stm32l0xx_hal_msp.o(i.HAL_MspInit) for HAL_MspInit
    stm32l0xx_hal.o(i.HAL_InitTick) refers to uidiv.o(.text) for __aeabi_uidivmod
    stm32l0xx_hal.o(i.HAL_InitTick) refers to stm32l0xx_hal_cortex.o(i.HAL_SYSTICK_Config) for HAL_SYSTICK_Config
    stm32l0xx_hal.o(i.HAL_InitTick) refers to stm32l0xx_hal_cortex.o(i.HAL_NVIC_SetPriority) for HAL_NVIC_SetPriority
    stm32l0xx_hal.o(i.HAL_InitTick) refers to stm32l0xx_hal.o(.data) for .data
    stm32l0xx_hal.o(i.HAL_InitTick) refers to system_stm32l0xx.o(.data) for SystemCoreClock
    stm32l0xx_hal.o(i.HAL_SetTickFreq) refers to stm32l0xx_hal.o(i.HAL_InitTick) for HAL_InitTick
    stm32l0xx_hal.o(i.HAL_SetTickFreq) refers to stm32l0xx_hal.o(.data) for .data
    stm32l0xx_hal_i2c.o(i.HAL_I2C_DeInit) refers to stm32l0xx_hal_i2c.o(i.HAL_I2C_MspDeInit) for HAL_I2C_MspDeInit
    stm32l0xx_hal_i2c.o(i.HAL_I2C_DisableListen_IT) refers to stm32l0xx_hal_i2c.o(i.I2C_Disable_IRQ) for I2C_Disable_IRQ
    stm32l0xx_hal_i2c.o(i.HAL_I2C_ER_IRQHandler) refers to stm32l0xx_hal_i2c.o(i.I2C_ITError) for I2C_ITError
    stm32l0xx_hal_i2c.o(i.HAL_I2C_EnableListen_IT) refers to stm32l0xx_hal_i2c.o(i.I2C_Enable_IRQ) for I2C_Enable_IRQ
    stm32l0xx_hal_i2c.o(i.HAL_I2C_EnableListen_IT) refers to stm32l0xx_hal_i2c.o(i.I2C_Slave_ISR_IT) for I2C_Slave_ISR_IT
    stm32l0xx_hal_i2c.o(i.HAL_I2C_Init) refers to stm32l0xx_hal_i2c.o(i.HAL_I2C_MspInit) for HAL_I2C_MspInit
    stm32l0xx_hal_i2c.o(i.HAL_I2C_IsDeviceReady) refers to stm32l0xx_hal.o(i.HAL_GetTick) for HAL_GetTick
    stm32l0xx_hal_i2c.o(i.HAL_I2C_IsDeviceReady) refers to stm32l0xx_hal_i2c.o(i.I2C_WaitOnFlagUntilTimeout) for I2C_WaitOnFlagUntilTimeout
    stm32l0xx_hal_i2c.o(i.HAL_I2C_Master_Abort_IT) refers to stm32l0xx_hal_i2c.o(i.I2C_Disable_IRQ) for I2C_Disable_IRQ
    stm32l0xx_hal_i2c.o(i.HAL_I2C_Master_Abort_IT) refers to stm32l0xx_hal_i2c.o(i.I2C_TransferConfig) for I2C_TransferConfig
    stm32l0xx_hal_i2c.o(i.HAL_I2C_Master_Abort_IT) refers to stm32l0xx_hal_i2c.o(i.I2C_Enable_IRQ) for I2C_Enable_IRQ
    stm32l0xx_hal_i2c.o(i.HAL_I2C_Master_Receive) refers to stm32l0xx_hal.o(i.HAL_GetTick) for HAL_GetTick
    stm32l0xx_hal_i2c.o(i.HAL_I2C_Master_Receive) refers to stm32l0xx_hal_i2c.o(i.I2C_WaitOnFlagUntilTimeout) for I2C_WaitOnFlagUntilTimeout
    stm32l0xx_hal_i2c.o(i.HAL_I2C_Master_Receive) refers to stm32l0xx_hal_i2c.o(i.I2C_TransferConfig) for I2C_TransferConfig
    stm32l0xx_hal_i2c.o(i.HAL_I2C_Master_Receive) refers to stm32l0xx_hal_i2c.o(i.I2C_WaitOnRXNEFlagUntilTimeout) for I2C_WaitOnRXNEFlagUntilTimeout
    stm32l0xx_hal_i2c.o(i.HAL_I2C_Master_Receive) refers to stm32l0xx_hal_i2c.o(i.I2C_WaitOnSTOPFlagUntilTimeout) for I2C_WaitOnSTOPFlagUntilTimeout
    stm32l0xx_hal_i2c.o(i.HAL_I2C_Master_Receive_DMA) refers to stm32l0xx_hal_dma.o(i.HAL_DMA_Start_IT) for HAL_DMA_Start_IT
    stm32l0xx_hal_i2c.o(i.HAL_I2C_Master_Receive_DMA) refers to stm32l0xx_hal_i2c.o(i.I2C_TransferConfig) for I2C_TransferConfig
    stm32l0xx_hal_i2c.o(i.HAL_I2C_Master_Receive_DMA) refers to stm32l0xx_hal_i2c.o(i.I2C_Enable_IRQ) for I2C_Enable_IRQ
    stm32l0xx_hal_i2c.o(i.HAL_I2C_Master_Receive_DMA) refers to stm32l0xx_hal_i2c.o(i.I2C_Master_ISR_DMA) for I2C_Master_ISR_DMA
    stm32l0xx_hal_i2c.o(i.HAL_I2C_Master_Receive_DMA) refers to stm32l0xx_hal_i2c.o(i.I2C_DMAMasterReceiveCplt) for I2C_DMAMasterReceiveCplt
    stm32l0xx_hal_i2c.o(i.HAL_I2C_Master_Receive_DMA) refers to stm32l0xx_hal_i2c.o(i.I2C_DMAError) for I2C_DMAError
    stm32l0xx_hal_i2c.o(i.HAL_I2C_Master_Receive_DMA) refers to stm32l0xx_hal_i2c.o(i.I2C_Master_ISR_IT) for I2C_Master_ISR_IT
    stm32l0xx_hal_i2c.o(i.HAL_I2C_Master_Receive_IT) refers to stm32l0xx_hal_i2c.o(i.I2C_TransferConfig) for I2C_TransferConfig
    stm32l0xx_hal_i2c.o(i.HAL_I2C_Master_Receive_IT) refers to stm32l0xx_hal_i2c.o(i.I2C_Enable_IRQ) for I2C_Enable_IRQ
    stm32l0xx_hal_i2c.o(i.HAL_I2C_Master_Receive_IT) refers to stm32l0xx_hal_i2c.o(i.I2C_Master_ISR_IT) for I2C_Master_ISR_IT
    stm32l0xx_hal_i2c.o(i.HAL_I2C_Master_Seq_Receive_DMA) refers to stm32l0xx_hal_i2c.o(i.I2C_ConvertOtherXferOptions) for I2C_ConvertOtherXferOptions
    stm32l0xx_hal_i2c.o(i.HAL_I2C_Master_Seq_Receive_DMA) refers to stm32l0xx_hal_dma.o(i.HAL_DMA_Start_IT) for HAL_DMA_Start_IT
    stm32l0xx_hal_i2c.o(i.HAL_I2C_Master_Seq_Receive_DMA) refers to stm32l0xx_hal_i2c.o(i.I2C_TransferConfig) for I2C_TransferConfig
    stm32l0xx_hal_i2c.o(i.HAL_I2C_Master_Seq_Receive_DMA) refers to stm32l0xx_hal_i2c.o(i.I2C_Enable_IRQ) for I2C_Enable_IRQ
    stm32l0xx_hal_i2c.o(i.HAL_I2C_Master_Seq_Receive_DMA) refers to stm32l0xx_hal_i2c.o(i.I2C_Master_ISR_DMA) for I2C_Master_ISR_DMA
    stm32l0xx_hal_i2c.o(i.HAL_I2C_Master_Seq_Receive_DMA) refers to stm32l0xx_hal_i2c.o(i.I2C_DMAMasterReceiveCplt) for I2C_DMAMasterReceiveCplt
    stm32l0xx_hal_i2c.o(i.HAL_I2C_Master_Seq_Receive_DMA) refers to stm32l0xx_hal_i2c.o(i.I2C_DMAError) for I2C_DMAError
    stm32l0xx_hal_i2c.o(i.HAL_I2C_Master_Seq_Receive_DMA) refers to stm32l0xx_hal_i2c.o(i.I2C_Master_ISR_IT) for I2C_Master_ISR_IT
    stm32l0xx_hal_i2c.o(i.HAL_I2C_Master_Seq_Receive_IT) refers to stm32l0xx_hal_i2c.o(i.I2C_ConvertOtherXferOptions) for I2C_ConvertOtherXferOptions
    stm32l0xx_hal_i2c.o(i.HAL_I2C_Master_Seq_Receive_IT) refers to stm32l0xx_hal_i2c.o(i.I2C_TransferConfig) for I2C_TransferConfig
    stm32l0xx_hal_i2c.o(i.HAL_I2C_Master_Seq_Receive_IT) refers to stm32l0xx_hal_i2c.o(i.I2C_Enable_IRQ) for I2C_Enable_IRQ
    stm32l0xx_hal_i2c.o(i.HAL_I2C_Master_Seq_Receive_IT) refers to stm32l0xx_hal_i2c.o(i.I2C_Master_ISR_IT) for I2C_Master_ISR_IT
    stm32l0xx_hal_i2c.o(i.HAL_I2C_Master_Seq_Transmit_DMA) refers to stm32l0xx_hal_i2c.o(i.I2C_ConvertOtherXferOptions) for I2C_ConvertOtherXferOptions
    stm32l0xx_hal_i2c.o(i.HAL_I2C_Master_Seq_Transmit_DMA) refers to stm32l0xx_hal_dma.o(i.HAL_DMA_Start_IT) for HAL_DMA_Start_IT
    stm32l0xx_hal_i2c.o(i.HAL_I2C_Master_Seq_Transmit_DMA) refers to stm32l0xx_hal_i2c.o(i.I2C_TransferConfig) for I2C_TransferConfig
    stm32l0xx_hal_i2c.o(i.HAL_I2C_Master_Seq_Transmit_DMA) refers to stm32l0xx_hal_i2c.o(i.I2C_Enable_IRQ) for I2C_Enable_IRQ
    stm32l0xx_hal_i2c.o(i.HAL_I2C_Master_Seq_Transmit_DMA) refers to stm32l0xx_hal_i2c.o(i.I2C_Master_ISR_DMA) for I2C_Master_ISR_DMA
    stm32l0xx_hal_i2c.o(i.HAL_I2C_Master_Seq_Transmit_DMA) refers to stm32l0xx_hal_i2c.o(i.I2C_DMAMasterTransmitCplt) for I2C_DMAMasterTransmitCplt
    stm32l0xx_hal_i2c.o(i.HAL_I2C_Master_Seq_Transmit_DMA) refers to stm32l0xx_hal_i2c.o(i.I2C_DMAError) for I2C_DMAError
    stm32l0xx_hal_i2c.o(i.HAL_I2C_Master_Seq_Transmit_DMA) refers to stm32l0xx_hal_i2c.o(i.I2C_Master_ISR_IT) for I2C_Master_ISR_IT
    stm32l0xx_hal_i2c.o(i.HAL_I2C_Master_Seq_Transmit_IT) refers to stm32l0xx_hal_i2c.o(i.I2C_ConvertOtherXferOptions) for I2C_ConvertOtherXferOptions
    stm32l0xx_hal_i2c.o(i.HAL_I2C_Master_Seq_Transmit_IT) refers to stm32l0xx_hal_i2c.o(i.I2C_TransferConfig) for I2C_TransferConfig
    stm32l0xx_hal_i2c.o(i.HAL_I2C_Master_Seq_Transmit_IT) refers to stm32l0xx_hal_i2c.o(i.I2C_Enable_IRQ) for I2C_Enable_IRQ
    stm32l0xx_hal_i2c.o(i.HAL_I2C_Master_Seq_Transmit_IT) refers to stm32l0xx_hal_i2c.o(i.I2C_Master_ISR_IT) for I2C_Master_ISR_IT
    stm32l0xx_hal_i2c.o(i.HAL_I2C_Master_Transmit) refers to stm32l0xx_hal.o(i.HAL_GetTick) for HAL_GetTick
    stm32l0xx_hal_i2c.o(i.HAL_I2C_Master_Transmit) refers to stm32l0xx_hal_i2c.o(i.I2C_WaitOnFlagUntilTimeout) for I2C_WaitOnFlagUntilTimeout
    stm32l0xx_hal_i2c.o(i.HAL_I2C_Master_Transmit) refers to stm32l0xx_hal_i2c.o(i.I2C_TransferConfig) for I2C_TransferConfig
    stm32l0xx_hal_i2c.o(i.HAL_I2C_Master_Transmit) refers to stm32l0xx_hal_i2c.o(i.I2C_WaitOnTXISFlagUntilTimeout) for I2C_WaitOnTXISFlagUntilTimeout
    stm32l0xx_hal_i2c.o(i.HAL_I2C_Master_Transmit) refers to stm32l0xx_hal_i2c.o(i.I2C_WaitOnSTOPFlagUntilTimeout) for I2C_WaitOnSTOPFlagUntilTimeout
    stm32l0xx_hal_i2c.o(i.HAL_I2C_Master_Transmit_DMA) refers to stm32l0xx_hal_dma.o(i.HAL_DMA_Start_IT) for HAL_DMA_Start_IT
    stm32l0xx_hal_i2c.o(i.HAL_I2C_Master_Transmit_DMA) refers to stm32l0xx_hal_i2c.o(i.I2C_TransferConfig) for I2C_TransferConfig
    stm32l0xx_hal_i2c.o(i.HAL_I2C_Master_Transmit_DMA) refers to stm32l0xx_hal_i2c.o(i.I2C_Enable_IRQ) for I2C_Enable_IRQ
    stm32l0xx_hal_i2c.o(i.HAL_I2C_Master_Transmit_DMA) refers to stm32l0xx_hal_i2c.o(i.I2C_Master_ISR_DMA) for I2C_Master_ISR_DMA
    stm32l0xx_hal_i2c.o(i.HAL_I2C_Master_Transmit_DMA) refers to stm32l0xx_hal_i2c.o(i.I2C_DMAMasterTransmitCplt) for I2C_DMAMasterTransmitCplt
    stm32l0xx_hal_i2c.o(i.HAL_I2C_Master_Transmit_DMA) refers to stm32l0xx_hal_i2c.o(i.I2C_DMAError) for I2C_DMAError
    stm32l0xx_hal_i2c.o(i.HAL_I2C_Master_Transmit_DMA) refers to stm32l0xx_hal_i2c.o(i.I2C_Master_ISR_IT) for I2C_Master_ISR_IT
    stm32l0xx_hal_i2c.o(i.HAL_I2C_Master_Transmit_IT) refers to stm32l0xx_hal_i2c.o(i.I2C_TransferConfig) for I2C_TransferConfig
    stm32l0xx_hal_i2c.o(i.HAL_I2C_Master_Transmit_IT) refers to stm32l0xx_hal_i2c.o(i.I2C_Enable_IRQ) for I2C_Enable_IRQ
    stm32l0xx_hal_i2c.o(i.HAL_I2C_Master_Transmit_IT) refers to stm32l0xx_hal_i2c.o(i.I2C_Master_ISR_IT) for I2C_Master_ISR_IT
    stm32l0xx_hal_i2c.o(i.HAL_I2C_Mem_Read) refers to stm32l0xx_hal.o(i.HAL_GetTick) for HAL_GetTick
    stm32l0xx_hal_i2c.o(i.HAL_I2C_Mem_Read) refers to stm32l0xx_hal_i2c.o(i.I2C_WaitOnFlagUntilTimeout) for I2C_WaitOnFlagUntilTimeout
    stm32l0xx_hal_i2c.o(i.HAL_I2C_Mem_Read) refers to stm32l0xx_hal_i2c.o(i.I2C_RequestMemoryRead) for I2C_RequestMemoryRead
    stm32l0xx_hal_i2c.o(i.HAL_I2C_Mem_Read) refers to stm32l0xx_hal_i2c.o(i.I2C_TransferConfig) for I2C_TransferConfig
    stm32l0xx_hal_i2c.o(i.HAL_I2C_Mem_Read) refers to stm32l0xx_hal_i2c.o(i.I2C_WaitOnSTOPFlagUntilTimeout) for I2C_WaitOnSTOPFlagUntilTimeout
    stm32l0xx_hal_i2c.o(i.HAL_I2C_Mem_Read_DMA) refers to stm32l0xx_hal.o(i.HAL_GetTick) for HAL_GetTick
    stm32l0xx_hal_i2c.o(i.HAL_I2C_Mem_Read_DMA) refers to stm32l0xx_hal_i2c.o(i.I2C_RequestMemoryRead) for I2C_RequestMemoryRead
    stm32l0xx_hal_i2c.o(i.HAL_I2C_Mem_Read_DMA) refers to stm32l0xx_hal_dma.o(i.HAL_DMA_Start_IT) for HAL_DMA_Start_IT
    stm32l0xx_hal_i2c.o(i.HAL_I2C_Mem_Read_DMA) refers to stm32l0xx_hal_i2c.o(i.I2C_TransferConfig) for I2C_TransferConfig
    stm32l0xx_hal_i2c.o(i.HAL_I2C_Mem_Read_DMA) refers to stm32l0xx_hal_i2c.o(i.I2C_Enable_IRQ) for I2C_Enable_IRQ
    stm32l0xx_hal_i2c.o(i.HAL_I2C_Mem_Read_DMA) refers to stm32l0xx_hal_i2c.o(i.I2C_Master_ISR_DMA) for I2C_Master_ISR_DMA
    stm32l0xx_hal_i2c.o(i.HAL_I2C_Mem_Read_DMA) refers to stm32l0xx_hal_i2c.o(i.I2C_DMAMasterReceiveCplt) for I2C_DMAMasterReceiveCplt
    stm32l0xx_hal_i2c.o(i.HAL_I2C_Mem_Read_DMA) refers to stm32l0xx_hal_i2c.o(i.I2C_DMAError) for I2C_DMAError
    stm32l0xx_hal_i2c.o(i.HAL_I2C_Mem_Read_IT) refers to stm32l0xx_hal.o(i.HAL_GetTick) for HAL_GetTick
    stm32l0xx_hal_i2c.o(i.HAL_I2C_Mem_Read_IT) refers to stm32l0xx_hal_i2c.o(i.I2C_RequestMemoryRead) for I2C_RequestMemoryRead
    stm32l0xx_hal_i2c.o(i.HAL_I2C_Mem_Read_IT) refers to stm32l0xx_hal_i2c.o(i.I2C_TransferConfig) for I2C_TransferConfig
    stm32l0xx_hal_i2c.o(i.HAL_I2C_Mem_Read_IT) refers to stm32l0xx_hal_i2c.o(i.I2C_Enable_IRQ) for I2C_Enable_IRQ
    stm32l0xx_hal_i2c.o(i.HAL_I2C_Mem_Read_IT) refers to stm32l0xx_hal_i2c.o(i.I2C_Master_ISR_IT) for I2C_Master_ISR_IT
    stm32l0xx_hal_i2c.o(i.HAL_I2C_Mem_Write) refers to stm32l0xx_hal.o(i.HAL_GetTick) for HAL_GetTick
    stm32l0xx_hal_i2c.o(i.HAL_I2C_Mem_Write) refers to stm32l0xx_hal_i2c.o(i.I2C_WaitOnFlagUntilTimeout) for I2C_WaitOnFlagUntilTimeout
    stm32l0xx_hal_i2c.o(i.HAL_I2C_Mem_Write) refers to stm32l0xx_hal_i2c.o(i.I2C_RequestMemoryWrite) for I2C_RequestMemoryWrite
    stm32l0xx_hal_i2c.o(i.HAL_I2C_Mem_Write) refers to stm32l0xx_hal_i2c.o(i.I2C_TransferConfig) for I2C_TransferConfig
    stm32l0xx_hal_i2c.o(i.HAL_I2C_Mem_Write) refers to stm32l0xx_hal_i2c.o(i.I2C_WaitOnTXISFlagUntilTimeout) for I2C_WaitOnTXISFlagUntilTimeout
    stm32l0xx_hal_i2c.o(i.HAL_I2C_Mem_Write) refers to stm32l0xx_hal_i2c.o(i.I2C_WaitOnSTOPFlagUntilTimeout) for I2C_WaitOnSTOPFlagUntilTimeout
    stm32l0xx_hal_i2c.o(i.HAL_I2C_Mem_Write_DMA) refers to stm32l0xx_hal.o(i.HAL_GetTick) for HAL_GetTick
    stm32l0xx_hal_i2c.o(i.HAL_I2C_Mem_Write_DMA) refers to stm32l0xx_hal_i2c.o(i.I2C_RequestMemoryWrite) for I2C_RequestMemoryWrite
    stm32l0xx_hal_i2c.o(i.HAL_I2C_Mem_Write_DMA) refers to stm32l0xx_hal_dma.o(i.HAL_DMA_Start_IT) for HAL_DMA_Start_IT
    stm32l0xx_hal_i2c.o(i.HAL_I2C_Mem_Write_DMA) refers to stm32l0xx_hal_i2c.o(i.I2C_TransferConfig) for I2C_TransferConfig
    stm32l0xx_hal_i2c.o(i.HAL_I2C_Mem_Write_DMA) refers to stm32l0xx_hal_i2c.o(i.I2C_Enable_IRQ) for I2C_Enable_IRQ
    stm32l0xx_hal_i2c.o(i.HAL_I2C_Mem_Write_DMA) refers to stm32l0xx_hal_i2c.o(i.I2C_Master_ISR_DMA) for I2C_Master_ISR_DMA
    stm32l0xx_hal_i2c.o(i.HAL_I2C_Mem_Write_DMA) refers to stm32l0xx_hal_i2c.o(i.I2C_DMAMasterTransmitCplt) for I2C_DMAMasterTransmitCplt
    stm32l0xx_hal_i2c.o(i.HAL_I2C_Mem_Write_DMA) refers to stm32l0xx_hal_i2c.o(i.I2C_DMAError) for I2C_DMAError
    stm32l0xx_hal_i2c.o(i.HAL_I2C_Mem_Write_IT) refers to stm32l0xx_hal.o(i.HAL_GetTick) for HAL_GetTick
    stm32l0xx_hal_i2c.o(i.HAL_I2C_Mem_Write_IT) refers to stm32l0xx_hal_i2c.o(i.I2C_RequestMemoryWrite) for I2C_RequestMemoryWrite
    stm32l0xx_hal_i2c.o(i.HAL_I2C_Mem_Write_IT) refers to stm32l0xx_hal_i2c.o(i.I2C_TransferConfig) for I2C_TransferConfig
    stm32l0xx_hal_i2c.o(i.HAL_I2C_Mem_Write_IT) refers to stm32l0xx_hal_i2c.o(i.I2C_Enable_IRQ) for I2C_Enable_IRQ
    stm32l0xx_hal_i2c.o(i.HAL_I2C_Mem_Write_IT) refers to stm32l0xx_hal_i2c.o(i.I2C_Master_ISR_IT) for I2C_Master_ISR_IT
    stm32l0xx_hal_i2c.o(i.HAL_I2C_Slave_Receive) refers to stm32l0xx_hal.o(i.HAL_GetTick) for HAL_GetTick
    stm32l0xx_hal_i2c.o(i.HAL_I2C_Slave_Receive) refers to stm32l0xx_hal_i2c.o(i.I2C_WaitOnFlagUntilTimeout) for I2C_WaitOnFlagUntilTimeout
    stm32l0xx_hal_i2c.o(i.HAL_I2C_Slave_Receive) refers to stm32l0xx_hal_i2c.o(i.I2C_WaitOnRXNEFlagUntilTimeout) for I2C_WaitOnRXNEFlagUntilTimeout
    stm32l0xx_hal_i2c.o(i.HAL_I2C_Slave_Receive) refers to stm32l0xx_hal_i2c.o(i.I2C_WaitOnSTOPFlagUntilTimeout) for I2C_WaitOnSTOPFlagUntilTimeout
    stm32l0xx_hal_i2c.o(i.HAL_I2C_Slave_Receive_DMA) refers to stm32l0xx_hal_dma.o(i.HAL_DMA_Start_IT) for HAL_DMA_Start_IT
    stm32l0xx_hal_i2c.o(i.HAL_I2C_Slave_Receive_DMA) refers to stm32l0xx_hal_i2c.o(i.I2C_Enable_IRQ) for I2C_Enable_IRQ
    stm32l0xx_hal_i2c.o(i.HAL_I2C_Slave_Receive_DMA) refers to stm32l0xx_hal_i2c.o(i.I2C_Slave_ISR_DMA) for I2C_Slave_ISR_DMA
    stm32l0xx_hal_i2c.o(i.HAL_I2C_Slave_Receive_DMA) refers to stm32l0xx_hal_i2c.o(i.I2C_DMASlaveReceiveCplt) for I2C_DMASlaveReceiveCplt
    stm32l0xx_hal_i2c.o(i.HAL_I2C_Slave_Receive_DMA) refers to stm32l0xx_hal_i2c.o(i.I2C_DMAError) for I2C_DMAError
    stm32l0xx_hal_i2c.o(i.HAL_I2C_Slave_Receive_IT) refers to stm32l0xx_hal_i2c.o(i.I2C_Enable_IRQ) for I2C_Enable_IRQ
    stm32l0xx_hal_i2c.o(i.HAL_I2C_Slave_Receive_IT) refers to stm32l0xx_hal_i2c.o(i.I2C_Slave_ISR_IT) for I2C_Slave_ISR_IT
    stm32l0xx_hal_i2c.o(i.HAL_I2C_Slave_Seq_Receive_DMA) refers to stm32l0xx_hal_i2c.o(i.I2C_Disable_IRQ) for I2C_Disable_IRQ
    stm32l0xx_hal_i2c.o(i.HAL_I2C_Slave_Seq_Receive_DMA) refers to stm32l0xx_hal_dma.o(i.HAL_DMA_Abort_IT) for HAL_DMA_Abort_IT
    stm32l0xx_hal_i2c.o(i.HAL_I2C_Slave_Seq_Receive_DMA) refers to stm32l0xx_hal_dma.o(i.HAL_DMA_Start_IT) for HAL_DMA_Start_IT
    stm32l0xx_hal_i2c.o(i.HAL_I2C_Slave_Seq_Receive_DMA) refers to stm32l0xx_hal_i2c.o(i.I2C_Enable_IRQ) for I2C_Enable_IRQ
    stm32l0xx_hal_i2c.o(i.HAL_I2C_Slave_Seq_Receive_DMA) refers to stm32l0xx_hal_i2c.o(i.I2C_DMAAbort) for I2C_DMAAbort
    stm32l0xx_hal_i2c.o(i.HAL_I2C_Slave_Seq_Receive_DMA) refers to stm32l0xx_hal_i2c.o(i.I2C_Slave_ISR_DMA) for I2C_Slave_ISR_DMA
    stm32l0xx_hal_i2c.o(i.HAL_I2C_Slave_Seq_Receive_DMA) refers to stm32l0xx_hal_i2c.o(i.I2C_DMASlaveReceiveCplt) for I2C_DMASlaveReceiveCplt
    stm32l0xx_hal_i2c.o(i.HAL_I2C_Slave_Seq_Receive_DMA) refers to stm32l0xx_hal_i2c.o(i.I2C_DMAError) for I2C_DMAError
    stm32l0xx_hal_i2c.o(i.HAL_I2C_Slave_Seq_Receive_IT) refers to stm32l0xx_hal_i2c.o(i.I2C_Disable_IRQ) for I2C_Disable_IRQ
    stm32l0xx_hal_i2c.o(i.HAL_I2C_Slave_Seq_Receive_IT) refers to stm32l0xx_hal_dma.o(i.HAL_DMA_Abort_IT) for HAL_DMA_Abort_IT
    stm32l0xx_hal_i2c.o(i.HAL_I2C_Slave_Seq_Receive_IT) refers to stm32l0xx_hal_i2c.o(i.I2C_Enable_IRQ) for I2C_Enable_IRQ
    stm32l0xx_hal_i2c.o(i.HAL_I2C_Slave_Seq_Receive_IT) refers to stm32l0xx_hal_i2c.o(i.I2C_DMAAbort) for I2C_DMAAbort
    stm32l0xx_hal_i2c.o(i.HAL_I2C_Slave_Seq_Receive_IT) refers to stm32l0xx_hal_i2c.o(i.I2C_Slave_ISR_IT) for I2C_Slave_ISR_IT
    stm32l0xx_hal_i2c.o(i.HAL_I2C_Slave_Seq_Transmit_DMA) refers to stm32l0xx_hal_i2c.o(i.I2C_Disable_IRQ) for I2C_Disable_IRQ
    stm32l0xx_hal_i2c.o(i.HAL_I2C_Slave_Seq_Transmit_DMA) refers to stm32l0xx_hal_dma.o(i.HAL_DMA_Abort_IT) for HAL_DMA_Abort_IT
    stm32l0xx_hal_i2c.o(i.HAL_I2C_Slave_Seq_Transmit_DMA) refers to stm32l0xx_hal_dma.o(i.HAL_DMA_Start_IT) for HAL_DMA_Start_IT
    stm32l0xx_hal_i2c.o(i.HAL_I2C_Slave_Seq_Transmit_DMA) refers to stm32l0xx_hal_i2c.o(i.I2C_Enable_IRQ) for I2C_Enable_IRQ
    stm32l0xx_hal_i2c.o(i.HAL_I2C_Slave_Seq_Transmit_DMA) refers to stm32l0xx_hal_i2c.o(i.I2C_DMAAbort) for I2C_DMAAbort
    stm32l0xx_hal_i2c.o(i.HAL_I2C_Slave_Seq_Transmit_DMA) refers to stm32l0xx_hal_i2c.o(i.I2C_Slave_ISR_DMA) for I2C_Slave_ISR_DMA
    stm32l0xx_hal_i2c.o(i.HAL_I2C_Slave_Seq_Transmit_DMA) refers to stm32l0xx_hal_i2c.o(i.I2C_DMASlaveTransmitCplt) for I2C_DMASlaveTransmitCplt
    stm32l0xx_hal_i2c.o(i.HAL_I2C_Slave_Seq_Transmit_DMA) refers to stm32l0xx_hal_i2c.o(i.I2C_DMAError) for I2C_DMAError
    stm32l0xx_hal_i2c.o(i.HAL_I2C_Slave_Seq_Transmit_IT) refers to stm32l0xx_hal_i2c.o(i.I2C_Disable_IRQ) for I2C_Disable_IRQ
    stm32l0xx_hal_i2c.o(i.HAL_I2C_Slave_Seq_Transmit_IT) refers to stm32l0xx_hal_dma.o(i.HAL_DMA_Abort_IT) for HAL_DMA_Abort_IT
    stm32l0xx_hal_i2c.o(i.HAL_I2C_Slave_Seq_Transmit_IT) refers to stm32l0xx_hal_i2c.o(i.I2C_Enable_IRQ) for I2C_Enable_IRQ
    stm32l0xx_hal_i2c.o(i.HAL_I2C_Slave_Seq_Transmit_IT) refers to stm32l0xx_hal_i2c.o(i.I2C_DMAAbort) for I2C_DMAAbort
    stm32l0xx_hal_i2c.o(i.HAL_I2C_Slave_Seq_Transmit_IT) refers to stm32l0xx_hal_i2c.o(i.I2C_Slave_ISR_IT) for I2C_Slave_ISR_IT
    stm32l0xx_hal_i2c.o(i.HAL_I2C_Slave_Transmit) refers to stm32l0xx_hal.o(i.HAL_GetTick) for HAL_GetTick
    stm32l0xx_hal_i2c.o(i.HAL_I2C_Slave_Transmit) refers to stm32l0xx_hal_i2c.o(i.I2C_WaitOnFlagUntilTimeout) for I2C_WaitOnFlagUntilTimeout
    stm32l0xx_hal_i2c.o(i.HAL_I2C_Slave_Transmit) refers to stm32l0xx_hal_i2c.o(i.I2C_WaitOnTXISFlagUntilTimeout) for I2C_WaitOnTXISFlagUntilTimeout
    stm32l0xx_hal_i2c.o(i.HAL_I2C_Slave_Transmit) refers to stm32l0xx_hal_i2c.o(i.I2C_WaitOnSTOPFlagUntilTimeout) for I2C_WaitOnSTOPFlagUntilTimeout
    stm32l0xx_hal_i2c.o(i.HAL_I2C_Slave_Transmit_DMA) refers to stm32l0xx_hal_dma.o(i.HAL_DMA_Start_IT) for HAL_DMA_Start_IT
    stm32l0xx_hal_i2c.o(i.HAL_I2C_Slave_Transmit_DMA) refers to stm32l0xx_hal_i2c.o(i.I2C_Enable_IRQ) for I2C_Enable_IRQ
    stm32l0xx_hal_i2c.o(i.HAL_I2C_Slave_Transmit_DMA) refers to stm32l0xx_hal_i2c.o(i.I2C_Slave_ISR_DMA) for I2C_Slave_ISR_DMA
    stm32l0xx_hal_i2c.o(i.HAL_I2C_Slave_Transmit_DMA) refers to stm32l0xx_hal_i2c.o(i.I2C_DMASlaveTransmitCplt) for I2C_DMASlaveTransmitCplt
    stm32l0xx_hal_i2c.o(i.HAL_I2C_Slave_Transmit_DMA) refers to stm32l0xx_hal_i2c.o(i.I2C_DMAError) for I2C_DMAError
    stm32l0xx_hal_i2c.o(i.HAL_I2C_Slave_Transmit_IT) refers to stm32l0xx_hal_i2c.o(i.I2C_Enable_IRQ) for I2C_Enable_IRQ
    stm32l0xx_hal_i2c.o(i.HAL_I2C_Slave_Transmit_IT) refers to stm32l0xx_hal_i2c.o(i.I2C_Slave_ISR_IT) for I2C_Slave_ISR_IT
    stm32l0xx_hal_i2c.o(i.I2C_DMAAbort) refers to stm32l0xx_hal_i2c.o(i.I2C_TreatErrorCallback) for I2C_TreatErrorCallback
    stm32l0xx_hal_i2c.o(i.I2C_DMAError) refers to stm32l0xx_hal_i2c.o(i.I2C_ITError) for I2C_ITError
    stm32l0xx_hal_i2c.o(i.I2C_DMAMasterReceiveCplt) refers to stm32l0xx_hal_dma.o(i.HAL_DMA_Start_IT) for HAL_DMA_Start_IT
    stm32l0xx_hal_i2c.o(i.I2C_DMAMasterReceiveCplt) refers to stm32l0xx_hal_i2c.o(i.I2C_ITError) for I2C_ITError
    stm32l0xx_hal_i2c.o(i.I2C_DMAMasterReceiveCplt) refers to stm32l0xx_hal_i2c.o(i.I2C_Enable_IRQ) for I2C_Enable_IRQ
    stm32l0xx_hal_i2c.o(i.I2C_DMAMasterTransmitCplt) refers to stm32l0xx_hal_dma.o(i.HAL_DMA_Start_IT) for HAL_DMA_Start_IT
    stm32l0xx_hal_i2c.o(i.I2C_DMAMasterTransmitCplt) refers to stm32l0xx_hal_i2c.o(i.I2C_ITError) for I2C_ITError
    stm32l0xx_hal_i2c.o(i.I2C_DMAMasterTransmitCplt) refers to stm32l0xx_hal_i2c.o(i.I2C_Enable_IRQ) for I2C_Enable_IRQ
    stm32l0xx_hal_i2c.o(i.I2C_DMASlaveReceiveCplt) refers to stm32l0xx_hal_i2c.o(i.I2C_ITSlaveSeqCplt) for I2C_ITSlaveSeqCplt
    stm32l0xx_hal_i2c.o(i.I2C_DMASlaveTransmitCplt) refers to stm32l0xx_hal_i2c.o(i.I2C_ITSlaveSeqCplt) for I2C_ITSlaveSeqCplt
    stm32l0xx_hal_i2c.o(i.I2C_Enable_IRQ) refers to stm32l0xx_hal_i2c.o(i.I2C_Master_ISR_DMA) for I2C_Master_ISR_DMA
    stm32l0xx_hal_i2c.o(i.I2C_Enable_IRQ) refers to stm32l0xx_hal_i2c.o(i.I2C_Slave_ISR_DMA) for I2C_Slave_ISR_DMA
    stm32l0xx_hal_i2c.o(i.I2C_ITAddrCplt) refers to stm32l0xx_hal_i2c.o(i.HAL_I2C_AddrCallback) for HAL_I2C_AddrCallback
    stm32l0xx_hal_i2c.o(i.I2C_ITAddrCplt) refers to stm32l0xx_hal_i2c.o(i.I2C_Disable_IRQ) for I2C_Disable_IRQ
    stm32l0xx_hal_i2c.o(i.I2C_ITError) refers to stm32l0xx_hal_i2c.o(i.I2C_Disable_IRQ) for I2C_Disable_IRQ
    stm32l0xx_hal_i2c.o(i.I2C_ITError) refers to stm32l0xx_hal_dma.o(i.HAL_DMA_GetState) for HAL_DMA_GetState
    stm32l0xx_hal_i2c.o(i.I2C_ITError) refers to stm32l0xx_hal_dma.o(i.HAL_DMA_Abort_IT) for HAL_DMA_Abort_IT
    stm32l0xx_hal_i2c.o(i.I2C_ITError) refers to stm32l0xx_hal_i2c.o(i.I2C_TreatErrorCallback) for I2C_TreatErrorCallback
    stm32l0xx_hal_i2c.o(i.I2C_ITError) refers to stm32l0xx_hal_i2c.o(i.I2C_DMAAbort) for I2C_DMAAbort
    stm32l0xx_hal_i2c.o(i.I2C_ITError) refers to stm32l0xx_hal_i2c.o(i.I2C_Slave_ISR_IT) for I2C_Slave_ISR_IT
    stm32l0xx_hal_i2c.o(i.I2C_ITListenCplt) refers to stm32l0xx_hal_i2c.o(i.I2C_Disable_IRQ) for I2C_Disable_IRQ
    stm32l0xx_hal_i2c.o(i.I2C_ITListenCplt) refers to stm32l0xx_hal_i2c.o(i.HAL_I2C_ListenCpltCallback) for HAL_I2C_ListenCpltCallback
    stm32l0xx_hal_i2c.o(i.I2C_ITMasterCplt) refers to stm32l0xx_hal_i2c.o(i.I2C_Disable_IRQ) for I2C_Disable_IRQ
    stm32l0xx_hal_i2c.o(i.I2C_ITMasterCplt) refers to stm32l0xx_hal_i2c.o(i.I2C_Flush_TXDR) for I2C_Flush_TXDR
    stm32l0xx_hal_i2c.o(i.I2C_ITMasterCplt) refers to stm32l0xx_hal_i2c.o(i.I2C_ITError) for I2C_ITError
    stm32l0xx_hal_i2c.o(i.I2C_ITMasterCplt) refers to stm32l0xx_hal_i2c.o(i.HAL_I2C_MasterRxCpltCallback) for HAL_I2C_MasterRxCpltCallback
    stm32l0xx_hal_i2c.o(i.I2C_ITMasterCplt) refers to stm32l0xx_hal_i2c.o(i.HAL_I2C_MasterTxCpltCallback) for HAL_I2C_MasterTxCpltCallback
    stm32l0xx_hal_i2c.o(i.I2C_ITMasterCplt) refers to stm32l0xx_hal_i2c.o(i.HAL_I2C_MemTxCpltCallback) for HAL_I2C_MemTxCpltCallback
    stm32l0xx_hal_i2c.o(i.I2C_ITMasterCplt) refers to stm32l0xx_hal_i2c.o(i.HAL_I2C_MemRxCpltCallback) for HAL_I2C_MemRxCpltCallback
    stm32l0xx_hal_i2c.o(i.I2C_ITMasterSeqCplt) refers to stm32l0xx_hal_i2c.o(i.I2C_Disable_IRQ) for I2C_Disable_IRQ
    stm32l0xx_hal_i2c.o(i.I2C_ITMasterSeqCplt) refers to stm32l0xx_hal_i2c.o(i.HAL_I2C_MasterRxCpltCallback) for HAL_I2C_MasterRxCpltCallback
    stm32l0xx_hal_i2c.o(i.I2C_ITMasterSeqCplt) refers to stm32l0xx_hal_i2c.o(i.HAL_I2C_MasterTxCpltCallback) for HAL_I2C_MasterTxCpltCallback
    stm32l0xx_hal_i2c.o(i.I2C_ITSlaveCplt) refers to stm32l0xx_hal_i2c.o(i.I2C_Disable_IRQ) for I2C_Disable_IRQ
    stm32l0xx_hal_i2c.o(i.I2C_ITSlaveCplt) refers to stm32l0xx_hal_i2c.o(i.I2C_Flush_TXDR) for I2C_Flush_TXDR
    stm32l0xx_hal_i2c.o(i.I2C_ITSlaveCplt) refers to stm32l0xx_hal_i2c.o(i.I2C_ITError) for I2C_ITError
    stm32l0xx_hal_i2c.o(i.I2C_ITSlaveCplt) refers to stm32l0xx_hal_i2c.o(i.I2C_ITListenCplt) for I2C_ITListenCplt
    stm32l0xx_hal_i2c.o(i.I2C_ITSlaveCplt) refers to stm32l0xx_hal_i2c.o(i.I2C_ITSlaveSeqCplt) for I2C_ITSlaveSeqCplt
    stm32l0xx_hal_i2c.o(i.I2C_ITSlaveCplt) refers to stm32l0xx_hal_i2c.o(i.HAL_I2C_ListenCpltCallback) for HAL_I2C_ListenCpltCallback
    stm32l0xx_hal_i2c.o(i.I2C_ITSlaveCplt) refers to stm32l0xx_hal_i2c.o(i.HAL_I2C_SlaveTxCpltCallback) for HAL_I2C_SlaveTxCpltCallback
    stm32l0xx_hal_i2c.o(i.I2C_ITSlaveCplt) refers to stm32l0xx_hal_i2c.o(i.HAL_I2C_SlaveRxCpltCallback) for HAL_I2C_SlaveRxCpltCallback
    stm32l0xx_hal_i2c.o(i.I2C_ITSlaveSeqCplt) refers to stm32l0xx_hal_i2c.o(i.I2C_Disable_IRQ) for I2C_Disable_IRQ
    stm32l0xx_hal_i2c.o(i.I2C_ITSlaveSeqCplt) refers to stm32l0xx_hal_i2c.o(i.HAL_I2C_SlaveRxCpltCallback) for HAL_I2C_SlaveRxCpltCallback
    stm32l0xx_hal_i2c.o(i.I2C_ITSlaveSeqCplt) refers to stm32l0xx_hal_i2c.o(i.HAL_I2C_SlaveTxCpltCallback) for HAL_I2C_SlaveTxCpltCallback
    stm32l0xx_hal_i2c.o(i.I2C_IsAcknowledgeFailed) refers to stm32l0xx_hal.o(i.HAL_GetTick) for HAL_GetTick
    stm32l0xx_hal_i2c.o(i.I2C_IsAcknowledgeFailed) refers to stm32l0xx_hal_i2c.o(i.I2C_Flush_TXDR) for I2C_Flush_TXDR
    stm32l0xx_hal_i2c.o(i.I2C_Master_ISR_DMA) refers to stm32l0xx_hal_i2c.o(i.I2C_Enable_IRQ) for I2C_Enable_IRQ
    stm32l0xx_hal_i2c.o(i.I2C_Master_ISR_DMA) refers to stm32l0xx_hal_i2c.o(i.I2C_Flush_TXDR) for I2C_Flush_TXDR
    stm32l0xx_hal_i2c.o(i.I2C_Master_ISR_DMA) refers to stm32l0xx_hal_i2c.o(i.I2C_TransferConfig) for I2C_TransferConfig
    stm32l0xx_hal_i2c.o(i.I2C_Master_ISR_DMA) refers to stm32l0xx_hal_i2c.o(i.I2C_ITError) for I2C_ITError
    stm32l0xx_hal_i2c.o(i.I2C_Master_ISR_DMA) refers to stm32l0xx_hal_i2c.o(i.I2C_ITMasterSeqCplt) for I2C_ITMasterSeqCplt
    stm32l0xx_hal_i2c.o(i.I2C_Master_ISR_DMA) refers to stm32l0xx_hal_i2c.o(i.I2C_ITMasterCplt) for I2C_ITMasterCplt
    stm32l0xx_hal_i2c.o(i.I2C_Master_ISR_IT) refers to stm32l0xx_hal_i2c.o(i.I2C_Flush_TXDR) for I2C_Flush_TXDR
    stm32l0xx_hal_i2c.o(i.I2C_Master_ISR_IT) refers to stm32l0xx_hal_i2c.o(i.I2C_TransferConfig) for I2C_TransferConfig
    stm32l0xx_hal_i2c.o(i.I2C_Master_ISR_IT) refers to stm32l0xx_hal_i2c.o(i.I2C_ITError) for I2C_ITError
    stm32l0xx_hal_i2c.o(i.I2C_Master_ISR_IT) refers to stm32l0xx_hal_i2c.o(i.I2C_ITMasterCplt) for I2C_ITMasterCplt
    stm32l0xx_hal_i2c.o(i.I2C_Master_ISR_IT) refers to stm32l0xx_hal_i2c.o(i.I2C_ITMasterSeqCplt) for I2C_ITMasterSeqCplt
    stm32l0xx_hal_i2c.o(i.I2C_RequestMemoryRead) refers to stm32l0xx_hal_i2c.o(i.I2C_TransferConfig) for I2C_TransferConfig
    stm32l0xx_hal_i2c.o(i.I2C_RequestMemoryRead) refers to stm32l0xx_hal_i2c.o(i.I2C_WaitOnTXISFlagUntilTimeout) for I2C_WaitOnTXISFlagUntilTimeout
    stm32l0xx_hal_i2c.o(i.I2C_RequestMemoryRead) refers to stm32l0xx_hal_i2c.o(i.I2C_WaitOnFlagUntilTimeout) for I2C_WaitOnFlagUntilTimeout
    stm32l0xx_hal_i2c.o(i.I2C_RequestMemoryWrite) refers to stm32l0xx_hal_i2c.o(i.I2C_TransferConfig) for I2C_TransferConfig
    stm32l0xx_hal_i2c.o(i.I2C_RequestMemoryWrite) refers to stm32l0xx_hal_i2c.o(i.I2C_WaitOnTXISFlagUntilTimeout) for I2C_WaitOnTXISFlagUntilTimeout
    stm32l0xx_hal_i2c.o(i.I2C_RequestMemoryWrite) refers to stm32l0xx_hal_i2c.o(i.I2C_WaitOnFlagUntilTimeout) for I2C_WaitOnFlagUntilTimeout
    stm32l0xx_hal_i2c.o(i.I2C_Slave_ISR_DMA) refers to stm32l0xx_hal_i2c.o(i.I2C_ITSlaveCplt) for I2C_ITSlaveCplt
    stm32l0xx_hal_i2c.o(i.I2C_Slave_ISR_DMA) refers to stm32l0xx_hal_i2c.o(i.I2C_ITListenCplt) for I2C_ITListenCplt
    stm32l0xx_hal_i2c.o(i.I2C_Slave_ISR_DMA) refers to stm32l0xx_hal_i2c.o(i.I2C_Flush_TXDR) for I2C_Flush_TXDR
    stm32l0xx_hal_i2c.o(i.I2C_Slave_ISR_DMA) refers to stm32l0xx_hal_i2c.o(i.I2C_ITSlaveSeqCplt) for I2C_ITSlaveSeqCplt
    stm32l0xx_hal_i2c.o(i.I2C_Slave_ISR_DMA) refers to stm32l0xx_hal_i2c.o(i.I2C_ITError) for I2C_ITError
    stm32l0xx_hal_i2c.o(i.I2C_Slave_ISR_DMA) refers to stm32l0xx_hal_i2c.o(i.I2C_ITAddrCplt) for I2C_ITAddrCplt
    stm32l0xx_hal_i2c.o(i.I2C_Slave_ISR_IT) refers to stm32l0xx_hal_i2c.o(i.I2C_ITSlaveCplt) for I2C_ITSlaveCplt
    stm32l0xx_hal_i2c.o(i.I2C_Slave_ISR_IT) refers to stm32l0xx_hal_i2c.o(i.I2C_ITError) for I2C_ITError
    stm32l0xx_hal_i2c.o(i.I2C_Slave_ISR_IT) refers to stm32l0xx_hal_i2c.o(i.I2C_ITListenCplt) for I2C_ITListenCplt
    stm32l0xx_hal_i2c.o(i.I2C_Slave_ISR_IT) refers to stm32l0xx_hal_i2c.o(i.I2C_Flush_TXDR) for I2C_Flush_TXDR
    stm32l0xx_hal_i2c.o(i.I2C_Slave_ISR_IT) refers to stm32l0xx_hal_i2c.o(i.I2C_ITAddrCplt) for I2C_ITAddrCplt
    stm32l0xx_hal_i2c.o(i.I2C_Slave_ISR_IT) refers to stm32l0xx_hal_i2c.o(i.I2C_ITSlaveSeqCplt) for I2C_ITSlaveSeqCplt
    stm32l0xx_hal_i2c.o(i.I2C_TreatErrorCallback) refers to stm32l0xx_hal_i2c.o(i.HAL_I2C_ErrorCallback) for HAL_I2C_ErrorCallback
    stm32l0xx_hal_i2c.o(i.I2C_TreatErrorCallback) refers to stm32l0xx_hal_i2c.o(i.HAL_I2C_AbortCpltCallback) for HAL_I2C_AbortCpltCallback
    stm32l0xx_hal_i2c.o(i.I2C_WaitOnFlagUntilTimeout) refers to stm32l0xx_hal.o(i.HAL_GetTick) for HAL_GetTick
    stm32l0xx_hal_i2c.o(i.I2C_WaitOnRXNEFlagUntilTimeout) refers to stm32l0xx_hal_i2c.o(i.I2C_IsAcknowledgeFailed) for I2C_IsAcknowledgeFailed
    stm32l0xx_hal_i2c.o(i.I2C_WaitOnRXNEFlagUntilTimeout) refers to stm32l0xx_hal.o(i.HAL_GetTick) for HAL_GetTick
    stm32l0xx_hal_i2c.o(i.I2C_WaitOnSTOPFlagUntilTimeout) refers to stm32l0xx_hal_i2c.o(i.I2C_IsAcknowledgeFailed) for I2C_IsAcknowledgeFailed
    stm32l0xx_hal_i2c.o(i.I2C_WaitOnSTOPFlagUntilTimeout) refers to stm32l0xx_hal.o(i.HAL_GetTick) for HAL_GetTick
    stm32l0xx_hal_i2c.o(i.I2C_WaitOnTXISFlagUntilTimeout) refers to stm32l0xx_hal_i2c.o(i.I2C_IsAcknowledgeFailed) for I2C_IsAcknowledgeFailed
    stm32l0xx_hal_i2c.o(i.I2C_WaitOnTXISFlagUntilTimeout) refers to stm32l0xx_hal.o(i.HAL_GetTick) for HAL_GetTick
    stm32l0xx_hal_rcc.o(i.HAL_RCC_ClockConfig) refers to stm32l0xx_hal.o(i.HAL_GetTick) for HAL_GetTick
    stm32l0xx_hal_rcc.o(i.HAL_RCC_ClockConfig) refers to stm32l0xx_hal_rcc.o(i.HAL_RCC_GetSysClockFreq) for HAL_RCC_GetSysClockFreq
    stm32l0xx_hal_rcc.o(i.HAL_RCC_ClockConfig) refers to stm32l0xx_hal.o(i.HAL_InitTick) for HAL_InitTick
    stm32l0xx_hal_rcc.o(i.HAL_RCC_ClockConfig) refers to system_stm32l0xx.o(.constdata) for AHBPrescTable
    stm32l0xx_hal_rcc.o(i.HAL_RCC_ClockConfig) refers to system_stm32l0xx.o(.data) for SystemCoreClock
    stm32l0xx_hal_rcc.o(i.HAL_RCC_ClockConfig) refers to stm32l0xx_hal.o(.data) for uwTickPrio
    stm32l0xx_hal_rcc.o(i.HAL_RCC_DeInit) refers to stm32l0xx_hal.o(i.HAL_GetTick) for HAL_GetTick
    stm32l0xx_hal_rcc.o(i.HAL_RCC_DeInit) refers to stm32l0xx_hal.o(i.HAL_InitTick) for HAL_InitTick
    stm32l0xx_hal_rcc.o(i.HAL_RCC_DeInit) refers to system_stm32l0xx.o(.data) for SystemCoreClock
    stm32l0xx_hal_rcc.o(i.HAL_RCC_DeInit) refers to stm32l0xx_hal.o(.data) for uwTickPrio
    stm32l0xx_hal_rcc.o(i.HAL_RCC_GetHCLKFreq) refers to system_stm32l0xx.o(.data) for SystemCoreClock
    stm32l0xx_hal_rcc.o(i.HAL_RCC_GetPCLK1Freq) refers to system_stm32l0xx.o(.data) for SystemCoreClock
    stm32l0xx_hal_rcc.o(i.HAL_RCC_GetPCLK1Freq) refers to system_stm32l0xx.o(.constdata) for APBPrescTable
    stm32l0xx_hal_rcc.o(i.HAL_RCC_GetPCLK2Freq) refers to system_stm32l0xx.o(.data) for SystemCoreClock
    stm32l0xx_hal_rcc.o(i.HAL_RCC_GetPCLK2Freq) refers to system_stm32l0xx.o(.constdata) for APBPrescTable
    stm32l0xx_hal_rcc.o(i.HAL_RCC_GetSysClockFreq) refers to crypto.o(i.__ARM_common_ll_muluu) for __ARM_common_ll_muluu
    stm32l0xx_hal_rcc.o(i.HAL_RCC_GetSysClockFreq) refers to uldiv.o(.text) for __aeabi_uldivmod
    stm32l0xx_hal_rcc.o(i.HAL_RCC_GetSysClockFreq) refers to system_stm32l0xx.o(.constdata) for PLLMulTable
    stm32l0xx_hal_rcc.o(i.HAL_RCC_MCOConfig) refers to memseta.o(.text) for __aeabi_memclr4
    stm32l0xx_hal_rcc.o(i.HAL_RCC_MCOConfig) refers to stm32l0xx_hal_gpio.o(i.HAL_GPIO_Init) for HAL_GPIO_Init
    stm32l0xx_hal_rcc.o(i.HAL_RCC_NMI_IRQHandler) refers to stm32l0xx_hal_rcc.o(i.HAL_RCC_CSSCallback) for HAL_RCC_CSSCallback
    stm32l0xx_hal_rcc.o(i.HAL_RCC_OscConfig) refers to stm32l0xx_hal.o(i.HAL_GetTick) for HAL_GetTick
    stm32l0xx_hal_rcc.o(i.HAL_RCC_OscConfig) refers to stm32l0xx_hal_rcc.o(i.HAL_RCC_GetSysClockFreq) for HAL_RCC_GetSysClockFreq
    stm32l0xx_hal_rcc.o(i.HAL_RCC_OscConfig) refers to stm32l0xx_hal.o(i.HAL_InitTick) for HAL_InitTick
    stm32l0xx_hal_rcc.o(i.HAL_RCC_OscConfig) refers to system_stm32l0xx.o(.constdata) for AHBPrescTable
    stm32l0xx_hal_rcc.o(i.HAL_RCC_OscConfig) refers to system_stm32l0xx.o(.data) for SystemCoreClock
    stm32l0xx_hal_rcc.o(i.HAL_RCC_OscConfig) refers to stm32l0xx_hal.o(.data) for uwTickPrio
    stm32l0xx_hal_rcc_ex.o(i.HAL_RCCEx_GetPeriphCLKFreq) refers to stm32l0xx_hal_rcc.o(i.HAL_RCC_GetPCLK2Freq) for HAL_RCC_GetPCLK2Freq
    stm32l0xx_hal_rcc_ex.o(i.HAL_RCCEx_GetPeriphCLKFreq) refers to stm32l0xx_hal_rcc.o(i.HAL_RCC_GetSysClockFreq) for HAL_RCC_GetSysClockFreq
    stm32l0xx_hal_rcc_ex.o(i.HAL_RCCEx_GetPeriphCLKFreq) refers to stm32l0xx_hal_rcc.o(i.HAL_RCC_GetPCLK1Freq) for HAL_RCC_GetPCLK1Freq
    stm32l0xx_hal_rcc_ex.o(i.HAL_RCCEx_LSECSS_IRQHandler) refers to stm32l0xx_hal_rcc_ex.o(i.HAL_RCCEx_LSECSS_Callback) for HAL_RCCEx_LSECSS_Callback
    stm32l0xx_hal_rcc_ex.o(i.HAL_RCCEx_PeriphCLKConfig) refers to stm32l0xx_hal.o(i.HAL_GetTick) for HAL_GetTick
    stm32l0xx_hal_flash_ramfunc.o(i.FLASHRAM_SetErrorCode) refers to stm32l0xx_hal_flash.o(.bss) for pFlash
    stm32l0xx_hal_flash_ramfunc.o(i.FLASHRAM_WaitForLastOperation) refers to stm32l0xx_hal_flash_ramfunc.o(i.FLASHRAM_SetErrorCode) for FLASHRAM_SetErrorCode
    stm32l0xx_hal_flash_ramfunc.o(i.HAL_FLASHEx_GetError) refers to stm32l0xx_hal_flash.o(.bss) for pFlash
    stm32l0xx_hal_flash_ramfunc.o(i.HAL_FLASHEx_HalfPageProgram) refers to stm32l0xx_hal_flash_ramfunc.o(i.FLASHRAM_WaitForLastOperation) for FLASHRAM_WaitForLastOperation
    stm32l0xx_hal_flash.o(i.FLASH_SetErrorCode) refers to stm32l0xx_hal_flash.o(.bss) for .bss
    stm32l0xx_hal_flash.o(i.FLASH_WaitForLastOperation) refers to stm32l0xx_hal.o(i.HAL_GetTick) for HAL_GetTick
    stm32l0xx_hal_flash.o(i.FLASH_WaitForLastOperation) refers to stm32l0xx_hal_flash.o(i.FLASH_SetErrorCode) for FLASH_SetErrorCode
    stm32l0xx_hal_flash.o(i.HAL_FLASH_GetError) refers to stm32l0xx_hal_flash.o(.bss) for .bss
    stm32l0xx_hal_flash.o(i.HAL_FLASH_IRQHandler) refers to stm32l0xx_hal_flash.o(i.FLASH_SetErrorCode) for FLASH_SetErrorCode
    stm32l0xx_hal_flash.o(i.HAL_FLASH_IRQHandler) refers to stm32l0xx_hal_flash.o(i.HAL_FLASH_OperationErrorCallback) for HAL_FLASH_OperationErrorCallback
    stm32l0xx_hal_flash.o(i.HAL_FLASH_IRQHandler) refers to stm32l0xx_hal_flash.o(i.HAL_FLASH_EndOfOperationCallback) for HAL_FLASH_EndOfOperationCallback
    stm32l0xx_hal_flash.o(i.HAL_FLASH_IRQHandler) refers to stm32l0xx_hal_flash_ex.o(i.FLASH_PageErase) for FLASH_PageErase
    stm32l0xx_hal_flash.o(i.HAL_FLASH_IRQHandler) refers to stm32l0xx_hal_flash.o(.bss) for .bss
    stm32l0xx_hal_flash.o(i.HAL_FLASH_OB_Launch) refers to stm32l0xx_hal_flash.o(i.FLASH_WaitForLastOperation) for FLASH_WaitForLastOperation
    stm32l0xx_hal_flash.o(i.HAL_FLASH_Program) refers to stm32l0xx_hal_flash.o(i.FLASH_WaitForLastOperation) for FLASH_WaitForLastOperation
    stm32l0xx_hal_flash.o(i.HAL_FLASH_Program) refers to stm32l0xx_hal_flash.o(.bss) for .bss
    stm32l0xx_hal_flash.o(i.HAL_FLASH_Program_IT) refers to stm32l0xx_hal_flash.o(.bss) for .bss
    stm32l0xx_hal_flash_ex.o(i.FLASH_OB_ProtectedSectorsConfig) refers to stm32l0xx_hal_flash.o(i.FLASH_WaitForLastOperation) for FLASH_WaitForLastOperation
    stm32l0xx_hal_flash_ex.o(i.FLASH_OB_ProtectedSectorsConfig) refers to stm32l0xx_hal_flash.o(.bss) for pFlash
    stm32l0xx_hal_flash_ex.o(i.FLASH_PageErase) refers to stm32l0xx_hal_flash.o(.bss) for pFlash
    stm32l0xx_hal_flash_ex.o(i.HAL_FLASHEx_AdvOBProgram) refers to stm32l0xx_hal_flash_ex.o(i.FLASH_OB_ProtectedSectorsConfig) for FLASH_OB_ProtectedSectorsConfig
    stm32l0xx_hal_flash_ex.o(i.HAL_FLASHEx_DATAEEPROM_Erase) refers to stm32l0xx_hal_flash.o(i.FLASH_WaitForLastOperation) for FLASH_WaitForLastOperation
    stm32l0xx_hal_flash_ex.o(i.HAL_FLASHEx_DATAEEPROM_Erase) refers to stm32l0xx_hal_flash.o(.bss) for pFlash
    stm32l0xx_hal_flash_ex.o(i.HAL_FLASHEx_DATAEEPROM_Program) refers to stm32l0xx_hal_flash.o(i.FLASH_WaitForLastOperation) for FLASH_WaitForLastOperation
    stm32l0xx_hal_flash_ex.o(i.HAL_FLASHEx_DATAEEPROM_Program) refers to stm32l0xx_hal_flash.o(.bss) for pFlash
    stm32l0xx_hal_flash_ex.o(i.HAL_FLASHEx_Erase) refers to stm32l0xx_hal_flash.o(i.FLASH_WaitForLastOperation) for FLASH_WaitForLastOperation
    stm32l0xx_hal_flash_ex.o(i.HAL_FLASHEx_Erase) refers to stm32l0xx_hal_flash_ex.o(i.FLASH_PageErase) for FLASH_PageErase
    stm32l0xx_hal_flash_ex.o(i.HAL_FLASHEx_Erase) refers to stm32l0xx_hal_flash.o(.bss) for pFlash
    stm32l0xx_hal_flash_ex.o(i.HAL_FLASHEx_Erase_IT) refers to stm32l0xx_hal_flash.o(i.FLASH_WaitForLastOperation) for FLASH_WaitForLastOperation
    stm32l0xx_hal_flash_ex.o(i.HAL_FLASHEx_Erase_IT) refers to stm32l0xx_hal_flash_ex.o(i.FLASH_PageErase) for FLASH_PageErase
    stm32l0xx_hal_flash_ex.o(i.HAL_FLASHEx_Erase_IT) refers to stm32l0xx_hal_flash.o(.bss) for pFlash
    stm32l0xx_hal_flash_ex.o(i.HAL_FLASHEx_OBProgram) refers to stm32l0xx_hal_flash_ex.o(i.FLASH_OB_ProtectedSectorsConfig) for FLASH_OB_ProtectedSectorsConfig
    stm32l0xx_hal_flash_ex.o(i.HAL_FLASHEx_OBProgram) refers to stm32l0xx_hal_flash.o(i.FLASH_WaitForLastOperation) for FLASH_WaitForLastOperation
    stm32l0xx_hal_flash_ex.o(i.HAL_FLASHEx_OBProgram) refers to stm32l0xx_hal_flash.o(.bss) for pFlash
    stm32l0xx_hal_flash_ex.o(i.HAL_FLASHEx_OB_DeSelectPCROP) refers to stm32l0xx_hal_flash.o(i.FLASH_WaitForLastOperation) for FLASH_WaitForLastOperation
    stm32l0xx_hal_flash_ex.o(i.HAL_FLASHEx_OB_DeSelectPCROP) refers to stm32l0xx_hal_flash.o(.bss) for pFlash
    stm32l0xx_hal_flash_ex.o(i.HAL_FLASHEx_OB_SelectPCROP) refers to stm32l0xx_hal_flash.o(i.FLASH_WaitForLastOperation) for FLASH_WaitForLastOperation
    stm32l0xx_hal_flash_ex.o(i.HAL_FLASHEx_OB_SelectPCROP) refers to stm32l0xx_hal_flash.o(.bss) for pFlash
    stm32l0xx_hal_gpio.o(i.HAL_GPIO_EXTI_IRQHandler) refers to stm32l0xx_hal_gpio.o(i.HAL_GPIO_EXTI_Callback) for HAL_GPIO_EXTI_Callback
    stm32l0xx_hal_dma.o(i.HAL_DMA_DeInit) refers to uidiv.o(.text) for __aeabi_uidivmod
    stm32l0xx_hal_dma.o(i.HAL_DMA_Init) refers to uidiv.o(.text) for __aeabi_uidivmod
    stm32l0xx_hal_dma.o(i.HAL_DMA_PollForTransfer) refers to stm32l0xx_hal.o(i.HAL_GetTick) for HAL_GetTick
    stm32l0xx_hal_dma.o(i.HAL_DMA_Start) refers to stm32l0xx_hal_dma.o(i.DMA_SetConfig) for DMA_SetConfig
    stm32l0xx_hal_dma.o(i.HAL_DMA_Start_IT) refers to stm32l0xx_hal_dma.o(i.DMA_SetConfig) for DMA_SetConfig
    stm32l0xx_hal_dma.o(i.HAL_DMA_UnRegisterCallback) refers to stm32l0xx_hal_dma.o(i.__ARM_common_switch8) for __ARM_common_switch8
    stm32l0xx_hal_pwr.o(i.HAL_PWR_PVD_IRQHandler) refers to stm32l0xx_hal_pwr.o(i.HAL_PWR_PVDCallback) for HAL_PWR_PVDCallback
    stm32l0xx_hal_pwr_ex.o(i.HAL_PWREx_DisableLowPowerRunMode) refers to uidiv.o(.text) for __aeabi_uidivmod
    stm32l0xx_hal_pwr_ex.o(i.HAL_PWREx_DisableLowPowerRunMode) refers to system_stm32l0xx.o(.data) for SystemCoreClock
    stm32l0xx_hal_cortex.o(i.HAL_NVIC_SetPriority) refers to stm32l0xx_hal_cortex.o(i.__NVIC_SetPriority) for __NVIC_SetPriority
    stm32l0xx_hal_cortex.o(i.HAL_SYSTICK_Config) refers to stm32l0xx_hal_cortex.o(i.__NVIC_SetPriority) for __NVIC_SetPriority
    stm32l0xx_hal_cortex.o(i.HAL_SYSTICK_IRQHandler) refers to stm32l0xx_hal_cortex.o(i.HAL_SYSTICK_Callback) for HAL_SYSTICK_Callback
    stm32l0xx_ll_rcc.o(i.LL_RCC_GetI2CClockFreq) refers to stm32l0xx_ll_rcc.o(i.RCC_GetSystemClockFreq) for RCC_GetSystemClockFreq
    stm32l0xx_ll_rcc.o(i.LL_RCC_GetI2CClockFreq) refers to stm32l0xx_ll_rcc.o(i.RCC_GetHCLKClockFreq) for RCC_GetHCLKClockFreq
    stm32l0xx_ll_rcc.o(i.LL_RCC_GetI2CClockFreq) refers to stm32l0xx_ll_rcc.o(i.RCC_GetPCLK1ClockFreq) for RCC_GetPCLK1ClockFreq
    stm32l0xx_ll_rcc.o(i.LL_RCC_GetI2CClockFreq) refers to stm32l0xx_ll_rcc.o(i.LL_RCC_HSI_IsReady) for LL_RCC_HSI_IsReady
    stm32l0xx_ll_rcc.o(i.LL_RCC_GetI2CClockFreq) refers to stm32l0xx_ll_rcc.o(i.LL_RCC_IsActiveFlag_HSIDIV) for LL_RCC_IsActiveFlag_HSIDIV
    stm32l0xx_ll_rcc.o(i.LL_RCC_GetLPTIMClockFreq) refers to stm32l0xx_ll_rcc.o(i.LL_RCC_LSE_IsReady) for LL_RCC_LSE_IsReady
    stm32l0xx_ll_rcc.o(i.LL_RCC_GetLPTIMClockFreq) refers to stm32l0xx_ll_rcc.o(i.RCC_GetSystemClockFreq) for RCC_GetSystemClockFreq
    stm32l0xx_ll_rcc.o(i.LL_RCC_GetLPTIMClockFreq) refers to stm32l0xx_ll_rcc.o(i.RCC_GetHCLKClockFreq) for RCC_GetHCLKClockFreq
    stm32l0xx_ll_rcc.o(i.LL_RCC_GetLPTIMClockFreq) refers to stm32l0xx_ll_rcc.o(i.RCC_GetPCLK1ClockFreq) for RCC_GetPCLK1ClockFreq
    stm32l0xx_ll_rcc.o(i.LL_RCC_GetLPTIMClockFreq) refers to stm32l0xx_ll_rcc.o(i.LL_RCC_HSI_IsReady) for LL_RCC_HSI_IsReady
    stm32l0xx_ll_rcc.o(i.LL_RCC_GetLPTIMClockFreq) refers to stm32l0xx_ll_rcc.o(i.LL_RCC_IsActiveFlag_HSIDIV) for LL_RCC_IsActiveFlag_HSIDIV
    stm32l0xx_ll_rcc.o(i.LL_RCC_GetLPUARTClockFreq) refers to stm32l0xx_ll_rcc.o(i.LL_RCC_LSE_IsReady) for LL_RCC_LSE_IsReady
    stm32l0xx_ll_rcc.o(i.LL_RCC_GetLPUARTClockFreq) refers to stm32l0xx_ll_rcc.o(i.RCC_GetSystemClockFreq) for RCC_GetSystemClockFreq
    stm32l0xx_ll_rcc.o(i.LL_RCC_GetLPUARTClockFreq) refers to stm32l0xx_ll_rcc.o(i.RCC_GetHCLKClockFreq) for RCC_GetHCLKClockFreq
    stm32l0xx_ll_rcc.o(i.LL_RCC_GetLPUARTClockFreq) refers to stm32l0xx_ll_rcc.o(i.RCC_GetPCLK1ClockFreq) for RCC_GetPCLK1ClockFreq
    stm32l0xx_ll_rcc.o(i.LL_RCC_GetLPUARTClockFreq) refers to stm32l0xx_ll_rcc.o(i.LL_RCC_HSI_IsReady) for LL_RCC_HSI_IsReady
    stm32l0xx_ll_rcc.o(i.LL_RCC_GetLPUARTClockFreq) refers to stm32l0xx_ll_rcc.o(i.LL_RCC_IsActiveFlag_HSIDIV) for LL_RCC_IsActiveFlag_HSIDIV
    stm32l0xx_ll_rcc.o(i.LL_RCC_GetSystemClocksFreq) refers to stm32l0xx_ll_rcc.o(i.RCC_GetSystemClockFreq) for RCC_GetSystemClockFreq
    stm32l0xx_ll_rcc.o(i.LL_RCC_GetSystemClocksFreq) refers to stm32l0xx_ll_rcc.o(i.RCC_GetHCLKClockFreq) for RCC_GetHCLKClockFreq
    stm32l0xx_ll_rcc.o(i.LL_RCC_GetSystemClocksFreq) refers to stm32l0xx_ll_rcc.o(i.RCC_GetPCLK1ClockFreq) for RCC_GetPCLK1ClockFreq
    stm32l0xx_ll_rcc.o(i.LL_RCC_GetSystemClocksFreq) refers to stm32l0xx_ll_rcc.o(i.RCC_GetPCLK2ClockFreq) for RCC_GetPCLK2ClockFreq
    stm32l0xx_ll_rcc.o(i.LL_RCC_GetUSARTClockFreq) refers to stm32l0xx_ll_rcc.o(i.LL_RCC_GetUSARTClockSource) for LL_RCC_GetUSARTClockSource
    stm32l0xx_ll_rcc.o(i.LL_RCC_GetUSARTClockFreq) refers to stm32l0xx_ll_rcc.o(i.RCC_GetSystemClockFreq) for RCC_GetSystemClockFreq
    stm32l0xx_ll_rcc.o(i.LL_RCC_GetUSARTClockFreq) refers to stm32l0xx_ll_rcc.o(i.RCC_GetHCLKClockFreq) for RCC_GetHCLKClockFreq
    stm32l0xx_ll_rcc.o(i.LL_RCC_GetUSARTClockFreq) refers to stm32l0xx_ll_rcc.o(i.RCC_GetPCLK2ClockFreq) for RCC_GetPCLK2ClockFreq
    stm32l0xx_ll_rcc.o(i.LL_RCC_GetUSARTClockFreq) refers to stm32l0xx_ll_rcc.o(i.LL_RCC_HSI_IsReady) for LL_RCC_HSI_IsReady
    stm32l0xx_ll_rcc.o(i.LL_RCC_GetUSARTClockFreq) refers to stm32l0xx_ll_rcc.o(i.LL_RCC_IsActiveFlag_HSIDIV) for LL_RCC_IsActiveFlag_HSIDIV
    stm32l0xx_ll_rcc.o(i.LL_RCC_GetUSARTClockFreq) refers to stm32l0xx_ll_rcc.o(i.LL_RCC_LSE_IsReady) for LL_RCC_LSE_IsReady
    stm32l0xx_ll_rcc.o(i.LL_RCC_GetUSARTClockFreq) refers to stm32l0xx_ll_rcc.o(i.RCC_GetPCLK1ClockFreq) for RCC_GetPCLK1ClockFreq
    stm32l0xx_ll_rcc.o(i.RCC_GetHCLKClockFreq) refers to system_stm32l0xx.o(.constdata) for AHBPrescTable
    stm32l0xx_ll_rcc.o(i.RCC_GetPCLK1ClockFreq) refers to system_stm32l0xx.o(.constdata) for APBPrescTable
    stm32l0xx_ll_rcc.o(i.RCC_GetPCLK2ClockFreq) refers to system_stm32l0xx.o(.constdata) for APBPrescTable
    stm32l0xx_ll_rcc.o(i.RCC_GetSystemClockFreq) refers to stm32l0xx_ll_rcc.o(i.LL_RCC_IsActiveFlag_HSIDIV) for LL_RCC_IsActiveFlag_HSIDIV
    stm32l0xx_ll_rcc.o(i.RCC_GetSystemClockFreq) refers to uidiv.o(.text) for __aeabi_uidivmod
    stm32l0xx_ll_rcc.o(i.RCC_GetSystemClockFreq) refers to system_stm32l0xx.o(.constdata) for PLLMulTable
    stm32l0xx_ll_utils.o(i.LL_Init1msTick) refers to uidiv.o(.text) for __aeabi_uidivmod
    stm32l0xx_ll_utils.o(i.LL_PLL_ConfigSystemClock_HSE) refers to stm32l0xx_ll_utils.o(i.UTILS_PLL_IsBusy) for UTILS_PLL_IsBusy
    stm32l0xx_ll_utils.o(i.LL_PLL_ConfigSystemClock_HSE) refers to stm32l0xx_ll_utils.o(i.UTILS_GetPLLOutputFrequency) for UTILS_GetPLLOutputFrequency
    stm32l0xx_ll_utils.o(i.LL_PLL_ConfigSystemClock_HSE) refers to stm32l0xx_ll_utils.o(i.LL_RCC_PLL_ConfigDomain_SYS) for LL_RCC_PLL_ConfigDomain_SYS
    stm32l0xx_ll_utils.o(i.LL_PLL_ConfigSystemClock_HSE) refers to stm32l0xx_ll_utils.o(i.UTILS_EnablePLLAndSwitchSystem) for UTILS_EnablePLLAndSwitchSystem
    stm32l0xx_ll_utils.o(i.LL_PLL_ConfigSystemClock_HSI) refers to stm32l0xx_ll_utils.o(i.UTILS_PLL_IsBusy) for UTILS_PLL_IsBusy
    stm32l0xx_ll_utils.o(i.LL_PLL_ConfigSystemClock_HSI) refers to stm32l0xx_ll_utils.o(i.UTILS_GetPLLOutputFrequency) for UTILS_GetPLLOutputFrequency
    stm32l0xx_ll_utils.o(i.LL_PLL_ConfigSystemClock_HSI) refers to stm32l0xx_ll_utils.o(i.LL_RCC_PLL_ConfigDomain_SYS) for LL_RCC_PLL_ConfigDomain_SYS
    stm32l0xx_ll_utils.o(i.LL_PLL_ConfigSystemClock_HSI) refers to stm32l0xx_ll_utils.o(i.UTILS_EnablePLLAndSwitchSystem) for UTILS_EnablePLLAndSwitchSystem
    stm32l0xx_ll_utils.o(i.LL_SetSystemCoreClock) refers to system_stm32l0xx.o(.data) for SystemCoreClock
    stm32l0xx_ll_utils.o(i.UTILS_EnablePLLAndSwitchSystem) refers to stm32l0xx_ll_utils.o(i.LL_SetFlashLatency) for LL_SetFlashLatency
    stm32l0xx_ll_utils.o(i.UTILS_EnablePLLAndSwitchSystem) refers to system_stm32l0xx.o(.constdata) for AHBPrescTable
    stm32l0xx_ll_utils.o(i.UTILS_EnablePLLAndSwitchSystem) refers to system_stm32l0xx.o(.data) for SystemCoreClock
    stm32l0xx_ll_utils.o(i.UTILS_GetPLLOutputFrequency) refers to uidiv.o(.text) for __aeabi_uidivmod
    stm32l0xx_ll_utils.o(i.UTILS_GetPLLOutputFrequency) refers to system_stm32l0xx.o(.constdata) for PLLMulTable
    stm32l0xx_hal_rtc.o(i.HAL_RTC_AlarmIRQHandler) refers to stm32l0xx_hal_rtc.o(i.HAL_RTC_AlarmAEventCallback) for HAL_RTC_AlarmAEventCallback
    stm32l0xx_hal_rtc.o(i.HAL_RTC_AlarmIRQHandler) refers to stm32l0xx_hal_rtc_ex.o(i.HAL_RTCEx_AlarmBEventCallback) for HAL_RTCEx_AlarmBEventCallback
    stm32l0xx_hal_rtc.o(i.HAL_RTC_DeInit) refers to stm32l0xx_hal_rtc.o(i.RTC_EnterInitMode) for RTC_EnterInitMode
    stm32l0xx_hal_rtc.o(i.HAL_RTC_DeInit) refers to stm32l0xx_hal.o(i.HAL_GetTick) for HAL_GetTick
    stm32l0xx_hal_rtc.o(i.HAL_RTC_DeInit) refers to stm32l0xx_hal_rtc.o(i.HAL_RTC_WaitForSynchro) for HAL_RTC_WaitForSynchro
    stm32l0xx_hal_rtc.o(i.HAL_RTC_DeInit) refers to rtc.o(i.HAL_RTC_MspDeInit) for HAL_RTC_MspDeInit
    stm32l0xx_hal_rtc.o(i.HAL_RTC_DeactivateAlarm) refers to stm32l0xx_hal.o(i.HAL_GetTick) for HAL_GetTick
    stm32l0xx_hal_rtc.o(i.HAL_RTC_GetAlarm) refers to stm32l0xx_hal_rtc.o(i.RTC_Bcd2ToByte) for RTC_Bcd2ToByte
    stm32l0xx_hal_rtc.o(i.HAL_RTC_GetDate) refers to stm32l0xx_hal_rtc.o(i.RTC_Bcd2ToByte) for RTC_Bcd2ToByte
    stm32l0xx_hal_rtc.o(i.HAL_RTC_GetTime) refers to stm32l0xx_hal_rtc.o(i.RTC_Bcd2ToByte) for RTC_Bcd2ToByte
    stm32l0xx_hal_rtc.o(i.HAL_RTC_Init) refers to rtc.o(i.HAL_RTC_MspInit) for HAL_RTC_MspInit
    stm32l0xx_hal_rtc.o(i.HAL_RTC_Init) refers to stm32l0xx_hal_rtc.o(i.RTC_EnterInitMode) for RTC_EnterInitMode
    stm32l0xx_hal_rtc.o(i.HAL_RTC_Init) refers to stm32l0xx_hal_rtc.o(i.HAL_RTC_WaitForSynchro) for HAL_RTC_WaitForSynchro
    stm32l0xx_hal_rtc.o(i.HAL_RTC_PollForAlarmAEvent) refers to stm32l0xx_hal.o(i.HAL_GetTick) for HAL_GetTick
    stm32l0xx_hal_rtc.o(i.HAL_RTC_SetAlarm) refers to stm32l0xx_hal.o(i.HAL_GetTick) for HAL_GetTick
    stm32l0xx_hal_rtc.o(i.HAL_RTC_SetAlarm) refers to stm32l0xx_hal_rtc.o(i.RTC_ByteToBcd2) for RTC_ByteToBcd2
    stm32l0xx_hal_rtc.o(i.HAL_RTC_SetAlarm_IT) refers to stm32l0xx_hal.o(i.HAL_GetTick) for HAL_GetTick
    stm32l0xx_hal_rtc.o(i.HAL_RTC_SetAlarm_IT) refers to stm32l0xx_hal_rtc.o(i.RTC_ByteToBcd2) for RTC_ByteToBcd2
    stm32l0xx_hal_rtc.o(i.HAL_RTC_SetDate) refers to stm32l0xx_hal_rtc.o(i.RTC_ByteToBcd2) for RTC_ByteToBcd2
    stm32l0xx_hal_rtc.o(i.HAL_RTC_SetDate) refers to stm32l0xx_hal_rtc.o(i.RTC_EnterInitMode) for RTC_EnterInitMode
    stm32l0xx_hal_rtc.o(i.HAL_RTC_SetDate) refers to stm32l0xx_hal_rtc.o(i.HAL_RTC_WaitForSynchro) for HAL_RTC_WaitForSynchro
    stm32l0xx_hal_rtc.o(i.HAL_RTC_SetTime) refers to stm32l0xx_hal_rtc.o(i.RTC_EnterInitMode) for RTC_EnterInitMode
    stm32l0xx_hal_rtc.o(i.HAL_RTC_SetTime) refers to stm32l0xx_hal_rtc.o(i.RTC_ByteToBcd2) for RTC_ByteToBcd2
    stm32l0xx_hal_rtc.o(i.HAL_RTC_SetTime) refers to stm32l0xx_hal_rtc.o(i.HAL_RTC_WaitForSynchro) for HAL_RTC_WaitForSynchro
    stm32l0xx_hal_rtc.o(i.HAL_RTC_WaitForSynchro) refers to stm32l0xx_hal.o(i.HAL_GetTick) for HAL_GetTick
    stm32l0xx_hal_rtc.o(i.RTC_EnterInitMode) refers to stm32l0xx_hal.o(i.HAL_GetTick) for HAL_GetTick
    stm32l0xx_hal_rtc_ex.o(i.HAL_RTCEx_DeactivateRefClock) refers to stm32l0xx_hal_rtc.o(i.RTC_EnterInitMode) for RTC_EnterInitMode
    stm32l0xx_hal_rtc_ex.o(i.HAL_RTCEx_DeactivateWakeUpTimer) refers to stm32l0xx_hal.o(i.HAL_GetTick) for HAL_GetTick
    stm32l0xx_hal_rtc_ex.o(i.HAL_RTCEx_GetTimeStamp) refers to stm32l0xx_hal_rtc.o(i.RTC_Bcd2ToByte) for RTC_Bcd2ToByte
    stm32l0xx_hal_rtc_ex.o(i.HAL_RTCEx_PollForAlarmBEvent) refers to stm32l0xx_hal.o(i.HAL_GetTick) for HAL_GetTick
    stm32l0xx_hal_rtc_ex.o(i.HAL_RTCEx_PollForTamper1Event) refers to stm32l0xx_hal.o(i.HAL_GetTick) for HAL_GetTick
    stm32l0xx_hal_rtc_ex.o(i.HAL_RTCEx_PollForTamper2Event) refers to stm32l0xx_hal.o(i.HAL_GetTick) for HAL_GetTick
    stm32l0xx_hal_rtc_ex.o(i.HAL_RTCEx_PollForTimeStampEvent) refers to stm32l0xx_hal.o(i.HAL_GetTick) for HAL_GetTick
    stm32l0xx_hal_rtc_ex.o(i.HAL_RTCEx_PollForWakeUpTimerEvent) refers to stm32l0xx_hal.o(i.HAL_GetTick) for HAL_GetTick
    stm32l0xx_hal_rtc_ex.o(i.HAL_RTCEx_SetRefClock) refers to stm32l0xx_hal_rtc.o(i.RTC_EnterInitMode) for RTC_EnterInitMode
    stm32l0xx_hal_rtc_ex.o(i.HAL_RTCEx_SetSmoothCalib) refers to stm32l0xx_hal.o(i.HAL_GetTick) for HAL_GetTick
    stm32l0xx_hal_rtc_ex.o(i.HAL_RTCEx_SetSynchroShift) refers to stm32l0xx_hal.o(i.HAL_GetTick) for HAL_GetTick
    stm32l0xx_hal_rtc_ex.o(i.HAL_RTCEx_SetSynchroShift) refers to stm32l0xx_hal_rtc.o(i.HAL_RTC_WaitForSynchro) for HAL_RTC_WaitForSynchro
    stm32l0xx_hal_rtc_ex.o(i.HAL_RTCEx_SetWakeUpTimer) refers to stm32l0xx_hal.o(i.HAL_GetTick) for HAL_GetTick
    stm32l0xx_hal_rtc_ex.o(i.HAL_RTCEx_SetWakeUpTimer_IT) refers to stm32l0xx_hal.o(i.HAL_GetTick) for HAL_GetTick
    stm32l0xx_hal_rtc_ex.o(i.HAL_RTCEx_TamperTimeStampIRQHandler) refers to stm32l0xx_hal_rtc_ex.o(i.HAL_RTCEx_TimeStampEventCallback) for HAL_RTCEx_TimeStampEventCallback
    stm32l0xx_hal_rtc_ex.o(i.HAL_RTCEx_TamperTimeStampIRQHandler) refers to stm32l0xx_hal_rtc_ex.o(i.HAL_RTCEx_Tamper1EventCallback) for HAL_RTCEx_Tamper1EventCallback
    stm32l0xx_hal_rtc_ex.o(i.HAL_RTCEx_TamperTimeStampIRQHandler) refers to stm32l0xx_hal_rtc_ex.o(i.HAL_RTCEx_Tamper2EventCallback) for HAL_RTCEx_Tamper2EventCallback
    stm32l0xx_hal_rtc_ex.o(i.HAL_RTCEx_WakeUpTimerIRQHandler) refers to rtc.o(i.HAL_RTCEx_WakeUpTimerEventCallback) for HAL_RTCEx_WakeUpTimerEventCallback
    stm32l0xx_ll_spi.o(i.LL_I2S_DeInit) refers to stm32l0xx_ll_spi.o(i.LL_SPI_DeInit) for LL_SPI_DeInit
    stm32l0xx_ll_spi.o(i.LL_I2S_Init) refers to stm32l0xx_ll_rcc.o(i.LL_RCC_GetSystemClocksFreq) for LL_RCC_GetSystemClocksFreq
    stm32l0xx_ll_spi.o(i.LL_I2S_Init) refers to uidiv.o(.text) for __aeabi_uidivmod
    stm32l0xx_ll_dma.o(i.LL_DMA_DeInit) refers to stm32l0xx_ll_dma.o(i.LL_DMA_SetPeriphRequest) for LL_DMA_SetPeriphRequest
    stm32l0xx_ll_dma.o(i.LL_DMA_Init) refers to stm32l0xx_ll_dma.o(i.LL_DMA_SetPeriphRequest) for LL_DMA_SetPeriphRequest
    stm32l0xx_ll_dma.o(i.LL_DMA_Init) refers to stm32l0xx_ll_dma.o(.constdata) for .constdata
    stm32l0xx_ll_usart.o(i.LL_USART_Init) refers to stm32l0xx_ll_rcc.o(i.LL_RCC_GetUSARTClockFreq) for LL_RCC_GetUSARTClockFreq
    stm32l0xx_ll_usart.o(i.LL_USART_Init) refers to uidiv.o(.text) for __aeabi_uidivmod
    system_stm32l0xx.o(i.SystemCoreClockUpdate) refers to uidiv.o(.text) for __aeabi_uidivmod
    system_stm32l0xx.o(i.SystemCoreClockUpdate) refers to system_stm32l0xx.o(.data) for .data
    system_stm32l0xx.o(i.SystemCoreClockUpdate) refers to system_stm32l0xx.o(.constdata) for .constdata
    crypto.o(i.AES_CBC_Decrypt_Append) refers to crypto.o(i.AES_general_SW_dec) for AES_general_SW_dec
    crypto.o(i.AES_CBC_Decrypt_Init) refers to crypto.o(i.AESstdInit) for AESstdInit
    crypto.o(i.AES_CBC_Encrypt_Append) refers to crypto.o(i.AES_general_SW_enc) for AES_general_SW_enc
    crypto.o(i.AES_CBC_Encrypt_Init) refers to crypto.o(i.AESstdInit) for AESstdInit
    crypto.o(i.AES_CCM_Decrypt_Append) refers to crypto.o(i.AES_general_SW_enc) for AES_general_SW_enc
    crypto.o(i.AES_CCM_Decrypt_Finish) refers to crypto.o(i.AES_general_SW_enc) for AES_general_SW_enc
    crypto.o(i.AES_CCM_Decrypt_Init) refers to crypto.o(i.AES_CCM_Encrypt_Init) for AES_CCM_Encrypt_Init
    crypto.o(i.AES_CCM_Encrypt_Append) refers to crypto.o(i.AES_general_SW_enc) for AES_general_SW_enc
    crypto.o(i.AES_CCM_Encrypt_Finish) refers to crypto.o(i.AES_general_SW_enc) for AES_general_SW_enc
    crypto.o(i.AES_CCM_Encrypt_Init) refers to crypto.o(i.AES_keyschedule_enc) for AES_keyschedule_enc
    crypto.o(i.AES_CCM_Encrypt_Init) refers to crypto.o(i.AES_general_SW_enc) for AES_general_SW_enc
    crypto.o(i.AES_CCM_Header_Append) refers to crypto.o(i.AES_general_SW_enc) for AES_general_SW_enc
    crypto.o(i.AES_CFB_Decrypt_Append) refers to crypto.o(i.AES_general_SW_enc) for AES_general_SW_enc
    crypto.o(i.AES_CFB_Decrypt_Init) refers to crypto.o(i.AES_CFB_Encrypt_Init) for AES_CFB_Encrypt_Init
    crypto.o(i.AES_CFB_Encrypt_Append) refers to crypto.o(i.AES_general_SW_enc) for AES_general_SW_enc
    crypto.o(i.AES_CFB_Encrypt_Init) refers to crypto.o(i.AESstdInit) for AESstdInit
    crypto.o(i.AES_CMAC_Decrypt_Append) refers to crypto.o(i.AES_CMAC_Encrypt_Append) for AES_CMAC_Encrypt_Append
    crypto.o(i.AES_CMAC_Decrypt_Finish) refers to crypto.o(i.AES_CMAC_Encrypt_Append) for AES_CMAC_Encrypt_Append
    crypto.o(i.AES_CMAC_Decrypt_Init) refers to crypto.o(i.AESstdInit) for AESstdInit
    crypto.o(i.AES_CMAC_Encrypt_Append) refers to crypto.o(i.AES_general_SW_enc) for AES_general_SW_enc
    crypto.o(i.AES_CMAC_Encrypt_Finish) refers to crypto.o(i.AES_CMAC_Encrypt_Append) for AES_CMAC_Encrypt_Append
    crypto.o(i.AES_CMAC_Encrypt_Init) refers to crypto.o(i.AESstdInit) for AESstdInit
    crypto.o(i.AES_CTR_Decrypt_Append) refers to crypto.o(i.AES_CTR_Encrypt_Append) for AES_CTR_Encrypt_Append
    crypto.o(i.AES_CTR_Decrypt_Init) refers to crypto.o(i.AESstdInit) for AESstdInit
    crypto.o(i.AES_CTR_Encrypt_Append) refers to crypto.o(i.AES_general_SW_enc) for AES_general_SW_enc
    crypto.o(i.AES_CTR_Encrypt_Init) refers to crypto.o(i.AESstdInit) for AESstdInit
    crypto.o(i.AES_ECB_Decrypt_Append) refers to crypto.o(i.AES_general_SW_dec) for AES_general_SW_dec
    crypto.o(i.AES_ECB_Decrypt_Init) refers to crypto.o(i.AESstdInit) for AESstdInit
    crypto.o(i.AES_ECB_Encrypt_Append) refers to crypto.o(i.AES_general_SW_enc) for AES_general_SW_enc
    crypto.o(i.AES_ECB_Encrypt_Init) refers to crypto.o(i.AESstdInit) for AESstdInit
    crypto.o(i.AES_GCM_Decrypt_Append) refers to crypto.o(i.AESgcmAppend) for AESgcmAppend
    crypto.o(i.AES_GCM_Decrypt_Finish) refers to crypto.o(i.AESgcmFinal) for AESgcmFinal
    crypto.o(i.AES_GCM_Decrypt_Init) refers to crypto.o(i.AES_GCM_Encrypt_Init) for AES_GCM_Encrypt_Init
    crypto.o(i.AES_GCM_Encrypt_Append) refers to crypto.o(i.AESgcmAppend) for AESgcmAppend
    crypto.o(i.AES_GCM_Encrypt_Finish) refers to crypto.o(i.AESgcmFinal) for AESgcmFinal
    crypto.o(i.AES_GCM_Encrypt_Init) refers to crypto.o(i.AES_keyschedule_enc) for AES_keyschedule_enc
    crypto.o(i.AES_GCM_Encrypt_Init) refers to crypto.o(i.AES_general_SW_enc) for AES_general_SW_enc
    crypto.o(i.AES_GCM_Encrypt_Init) refers to crypto.o(.constdata) for .constdata
    crypto.o(i.AES_GCM_Header_Append) refers to crypto.o(i.gfmul) for gfmul
    crypto.o(i.AES_KeyWrap_Decrypt_Append) refers to memseta.o(.text) for __aeabi_memclr4
    crypto.o(i.AES_KeyWrap_Decrypt_Append) refers to crypto.o(i.AES_general_SW_dec) for AES_general_SW_dec
    crypto.o(i.AES_KeyWrap_Decrypt_Init) refers to crypto.o(i.AESstdInit) for AESstdInit
    crypto.o(i.AES_KeyWrap_Encrypt_Append) refers to memseta.o(.text) for __aeabi_memclr4
    crypto.o(i.AES_KeyWrap_Encrypt_Append) refers to crypto.o(i.AES_general_SW_enc) for AES_general_SW_enc
    crypto.o(i.AES_KeyWrap_Encrypt_Init) refers to crypto.o(i.AESstdInit) for AESstdInit
    crypto.o(i.AES_OFB_Decrypt_Append) refers to crypto.o(i.AES_OFB_Encrypt_Append) for AES_OFB_Encrypt_Append
    crypto.o(i.AES_OFB_Decrypt_Init) refers to crypto.o(i.AES_OFB_Encrypt_Init) for AES_OFB_Encrypt_Init
    crypto.o(i.AES_OFB_Encrypt_Append) refers to crypto.o(i.AES_general_SW_enc) for AES_general_SW_enc
    crypto.o(i.AES_OFB_Encrypt_Init) refers to crypto.o(i.AESstdInit) for AESstdInit
    crypto.o(i.AES_XTS_Common_Append) refers to crypto.o(i.AES_general_SW_enc) for AES_general_SW_enc
    crypto.o(i.AES_XTS_Common_Append) refers to crypto.o(i.AES_general_SW_dec) for AES_general_SW_dec
    crypto.o(i.AES_XTS_Common_Init) refers to crypto.o(i.AES_keyschedule_enc) for AES_keyschedule_enc
    crypto.o(i.AES_XTS_Common_Init) refers to crypto.o(i.AES_general_SW_enc) for AES_general_SW_enc
    crypto.o(i.AES_XTS_Common_Init) refers to crypto.o(i.AES_keyschedule_dec) for AES_keyschedule_dec
    crypto.o(i.AES_XTS_Decrypt_Append) refers to crypto.o(i.AES_XTS_Common_Append) for AES_XTS_Common_Append
    crypto.o(i.AES_XTS_Decrypt_Init) refers to crypto.o(i.AES_XTS_Common_Init) for AES_XTS_Common_Init
    crypto.o(i.AES_XTS_Encrypt_Append) refers to crypto.o(i.AES_XTS_Common_Append) for AES_XTS_Common_Append
    crypto.o(i.AES_XTS_Encrypt_Init) refers to crypto.o(i.AES_XTS_Common_Init) for AES_XTS_Common_Init
    crypto.o(i.AES_general_SW_dec) refers to crypto.o(.constdata) for .constdata
    crypto.o(i.AES_general_SW_enc) refers to crypto.o(.constdata) for .constdata
    crypto.o(i.AES_keyschedule_dec) refers to crypto.o(i.AES_keyschedule_enc) for AES_keyschedule_enc
    crypto.o(i.AES_keyschedule_dec) refers to crypto.o(.constdata) for .constdata
    crypto.o(i.AES_keyschedule_enc) refers to crypto.o(i.AES_keyschedule_enc_LL) for AES_keyschedule_enc_LL
    crypto.o(i.AES_keyschedule_enc_LL) refers to crypto.o(.constdata) for .constdata
    crypto.o(i.AESgcmAppend) refers to crypto.o(i.AES_general_SW_enc) for AES_general_SW_enc
    crypto.o(i.AESgcmAppend) refers to crypto.o(i.gfmul) for gfmul
    crypto.o(i.AESgcmFinal) refers to crypto.o(i.gfmul) for gfmul
    crypto.o(i.AESgcmFinal) refers to crypto.o(i.AES_general_SW_enc) for AES_general_SW_enc
    crypto.o(i.AESstdInit) refers to crypto.o(i.AES_keyschedule_dec) for AES_keyschedule_dec
    crypto.o(i.AESstdInit) refers to crypto.o(i.AES_keyschedule_enc) for AES_keyschedule_enc
    crypto.o(i.ARC4_Decrypt_Append) refers to crypto.o(i.ARC4_Encrypt_Append) for ARC4_Encrypt_Append
    crypto.o(i.AddBig) refers to crypto.o(i.StAllocBig) for StAllocBig
    crypto.o(i.AddBig) refers to crypto.o(i.CompareBig) for CompareBig
    crypto.o(i.AddBig) refers to crypto.o(i.CopyBig) for CopyBig
    crypto.o(i.AddBig) refers to crypto.o(i.Sub_Moduli_Big) for Sub_Moduli_Big
    crypto.o(i.AddBig) refers to crypto.o(i.Add_Moduli_Big) for Add_Moduli_Big
    crypto.o(i.AddBig) refers to crypto.o(i.SetZeroBig) for SetZeroBig
    crypto.o(i.AddBig) refers to crypto.o(i.InitBig) for InitBig
    crypto.o(i.AddBig) refers to crypto.o(i.StFreeBig) for StFreeBig
    crypto.o(i.Add_Moduli_Big) refers to crypto.o(i.CopyBig) for CopyBig
    crypto.o(i.Big_to_W8) refers to crypto.o(i.CountBytes) for CountBytes
    crypto.o(i.Big_to_fixedW8) refers to crypto.o(i.CountBytes) for CountBytes
    crypto.o(i.Big_to_fixedW8) refers to crypto.o(i.Big_to_W8) for Big_to_W8
    crypto.o(i.Binary_DoublePointMul) refers to crypto.o(i.ECCpoint2Monty) for ECCpoint2Monty
    crypto.o(i.Binary_DoublePointMul) refers to crypto.o(i.ECCinitPoint) for ECCinitPoint
    crypto.o(i.Binary_DoublePointMul) refers to crypto.o(i.ECCcopyPoint) for ECCcopyPoint
    crypto.o(i.Binary_DoublePointMul) refers to crypto.o(i.MontyJacProjAddPoints) for MontyJacProjAddPoints
    crypto.o(i.Binary_DoublePointMul) refers to crypto.o(i.MontyJacProjDoublePoint) for MontyJacProjDoublePoint
    crypto.o(i.Binary_DoublePointMul) refers to crypto.o(i.GiveBit) for GiveBit
    crypto.o(i.Binary_DoublePointMul) refers to crypto.o(i.ECCfreePoint) for ECCfreePoint
    crypto.o(i.C25519keyExchange) refers to memmovea.o(.text) for __aeabi_memcpy
    crypto.o(i.C25519keyExchange) refers to crypto.o(i.fe25519_unpack) for fe25519_unpack
    crypto.o(i.C25519keyExchange) refers to crypto.o(i.fe25519_copy) for fe25519_copy
    crypto.o(i.C25519keyExchange) refers to crypto.o(i.fe25519_setone) for fe25519_setone
    crypto.o(i.C25519keyExchange) refers to crypto.o(i.fe25519_setzero) for fe25519_setzero
    crypto.o(i.C25519keyExchange) refers to crypto.o(i.fe25519_add) for fe25519_add
    crypto.o(i.C25519keyExchange) refers to crypto.o(i.fe25519_sub) for fe25519_sub
    crypto.o(i.C25519keyExchange) refers to crypto.o(i.fe25519_square) for fe25519_square
    crypto.o(i.C25519keyExchange) refers to crypto.o(i.fe25519_mul) for fe25519_mul
    crypto.o(i.C25519keyExchange) refers to crypto.o(i.fe25519_mult121665) for fe25519_mult121665
    crypto.o(i.C25519keyExchange) refers to crypto.o(i.fe25519_invert) for fe25519_invert
    crypto.o(i.C25519keyExchange) refers to crypto.o(i.fe25519_pack) for fe25519_pack
    crypto.o(i.C25519keyGen) refers to crypto.o(i.C25519keyExchange) for C25519keyExchange
    crypto.o(i.C25519keyGen) refers to crypto.o(.constdata) for .constdata
    crypto.o(i.CHACHA_Decrypt_Append) refers to crypto.o(i.CHACHA_Encrypt_Append) for CHACHA_Encrypt_Append
    crypto.o(i.CHACHA_Decrypt_Init) refers to crypto.o(i.CHACHA_Encrypt_Init) for CHACHA_Encrypt_Init
    crypto.o(i.CHACHA_Encrypt_Append) refers to crypto.o(i.salsa20_wordtobyte) for salsa20_wordtobyte
    crypto.o(i.CHACHA_Encrypt_Init) refers to crypto.o(.constdata) for .constdata
    crypto.o(i.ChaCha20Poly1305_Append) refers to crypto.o(i.salsa20_wordtobyte) for salsa20_wordtobyte
    crypto.o(i.ChaCha20Poly1305_Append) refers to crypto.o(i.Poly1305_Core_Update) for Poly1305_Core_Update
    crypto.o(i.ChaCha20Poly1305_Decrypt_Append) refers to crypto.o(i.ChaCha20Poly1305_Append) for ChaCha20Poly1305_Append
    crypto.o(i.ChaCha20Poly1305_Decrypt_Finish) refers to crypto.o(i.Poly1305_Core_Update) for Poly1305_Core_Update
    crypto.o(i.ChaCha20Poly1305_Decrypt_Finish) refers to crypto.o(i.Poly1305_Core_Finish) for Poly1305_Core_Finish
    crypto.o(i.ChaCha20Poly1305_Decrypt_Init) refers to crypto.o(i.ChaCha20Poly1305_Encrypt_Init) for ChaCha20Poly1305_Encrypt_Init
    crypto.o(i.ChaCha20Poly1305_Encrypt_Append) refers to crypto.o(i.ChaCha20Poly1305_Append) for ChaCha20Poly1305_Append
    crypto.o(i.ChaCha20Poly1305_Encrypt_Finish) refers to crypto.o(i.Poly1305_Core_Update) for Poly1305_Core_Update
    crypto.o(i.ChaCha20Poly1305_Encrypt_Finish) refers to crypto.o(i.Poly1305_Core_Finish) for Poly1305_Core_Finish
    crypto.o(i.ChaCha20Poly1305_Encrypt_Init) refers to crypto.o(i.salsa20_wordtobyte) for salsa20_wordtobyte
    crypto.o(i.ChaCha20Poly1305_Encrypt_Init) refers to crypto.o(.constdata) for .constdata
    crypto.o(i.ChaCha20Poly1305_Header_Append) refers to crypto.o(i.Poly1305_Core_Update) for Poly1305_Core_Update
    crypto.o(i.CountBits) refers to crypto.o(i.IsZeroBig) for IsZeroBig
    crypto.o(i.CountBytes) refers to crypto.o(i.IsZeroBig) for IsZeroBig
    crypto.o(i.DES_CBC_Decrypt_Append) refers to crypto.o(i.desfunc) for desfunc
    crypto.o(i.DES_CBC_Decrypt_Init) refers to crypto.o(i.DESstdInit) for DESstdInit
    crypto.o(i.DES_CBC_Encrypt_Append) refers to crypto.o(i.desfunc) for desfunc
    crypto.o(i.DES_CBC_Encrypt_Init) refers to crypto.o(i.DESstdInit) for DESstdInit
    crypto.o(i.DES_ECB_Decrypt_Append) refers to crypto.o(i.DES_ECB_Encrypt_Append) for DES_ECB_Encrypt_Append
    crypto.o(i.DES_ECB_Decrypt_Init) refers to crypto.o(i.DESstdInit) for DESstdInit
    crypto.o(i.DES_ECB_Encrypt_Append) refers to crypto.o(i.desfunc) for desfunc
    crypto.o(i.DES_ECB_Encrypt_Init) refers to crypto.o(i.DESstdInit) for DESstdInit
    crypto.o(i.DESstdInit) refers to crypto.o(i.deskey) for deskey
    crypto.o(i.DRBG_AES128_Bcc) refers to crypto.o(i.AES_general_SW_enc) for AES_general_SW_enc
    crypto.o(i.DRBG_AES128_Block_cipher_df) refers to memmovea.o(.text) for __aeabi_memcpy4
    crypto.o(i.DRBG_AES128_Block_cipher_df) refers to crypto.o(i.DRBG_AES128_Bcc) for DRBG_AES128_Bcc
    crypto.o(i.DRBG_AES128_Block_cipher_df) refers to crypto.o(i.AES_keyschedule_enc_LL) for AES_keyschedule_enc_LL
    crypto.o(i.DRBG_AES128_Block_cipher_df) refers to crypto.o(i.AES_general_SW_enc) for AES_general_SW_enc
    crypto.o(i.DRBG_AES128_Block_cipher_df) refers to crypto.o(.constdata) for .constdata
    crypto.o(i.DRBG_AES128_Update) refers to crypto.o(i.AES_general_SW_enc) for AES_general_SW_enc
    crypto.o(i.ECCcopyPoint) refers to crypto.o(i.CopyBig) for CopyBig
    crypto.o(i.ECCfreeEC) refers to crypto.o(i.StFreeBig) for StFreeBig
    crypto.o(i.ECCfreePoint) refers to crypto.o(i.StFreeBig) for StFreeBig
    crypto.o(i.ECCfreePrivKey) refers to crypto.o(i.StFreeBig) for StFreeBig
    crypto.o(i.ECCgetPointCoordinate) refers to crypto.o(i.Big_to_fixedW8) for Big_to_fixedW8
    crypto.o(i.ECCgetPrivKeyValue) refers to crypto.o(i.Big_to_fixedW8) for Big_to_fixedW8
    crypto.o(i.ECCinitEC) refers to crypto.o(i.StAllocBig) for StAllocBig
    crypto.o(i.ECCinitEC) refers to crypto.o(i.W8_to_Big) for W8_to_Big
    crypto.o(i.ECCinitEC) refers to crypto.o(i.StFreeBig) for StFreeBig
    crypto.o(i.ECCinitPoint) refers to crypto.o(i.StAllocBig) for StAllocBig
    crypto.o(i.ECCinitPoint) refers to crypto.o(i.StFreeBig) for StFreeBig
    crypto.o(i.ECCinitPoint) refers to crypto.o(i.InitBig) for InitBig
    crypto.o(i.ECCinitPrivKey) refers to crypto.o(i.StAllocBig) for StAllocBig
    crypto.o(i.ECCinitPrivKey) refers to crypto.o(i.InitBig) for InitBig
    crypto.o(i.ECCkeyGen) refers to crypto.o(i.CountBits) for CountBits
    crypto.o(i.ECCkeyGen) refers to crypto.o(i.RNGgenBytes) for RNGgenBytes
    crypto.o(i.ECCkeyGen) refers to crypto.o(i.CompareBig) for CompareBig
    crypto.o(i.ECCkeyGen) refers to crypto.o(i.IsZeroBig) for IsZeroBig
    crypto.o(i.ECCkeyGen) refers to crypto.o(i.ECCinitPoint) for ECCinitPoint
    crypto.o(i.ECCkeyGen) refers to crypto.o(i.ECCsetPointGenerator) for ECCsetPointGenerator
    crypto.o(i.ECCkeyGen) refers to crypto.o(i.ECCscalarMul) for ECCscalarMul
    crypto.o(i.ECCkeyGen) refers to crypto.o(i.ECCfreePoint) for ECCfreePoint
    crypto.o(i.ECCpoint2Monty) refers to crypto.o(i.MontyMul) for MontyMul
    crypto.o(i.ECCpointFromMonty) refers to crypto.o(i.MontyExit) for MontyExit
    crypto.o(i.ECCscalarMul) refers to crypto.o(i.MontyInit) for MontyInit
    crypto.o(i.ECCscalarMul) refers to crypto.o(i.NAF_Binary_PointMul) for NAF_Binary_PointMul
    crypto.o(i.ECCscalarMul) refers to crypto.o(i.MontyKillAll) for MontyKillAll
    crypto.o(i.ECCscalarMul) refers to crypto.o(i.Normalize) for Normalize
    crypto.o(i.ECCsetPointCoordinate) refers to crypto.o(i.W8_to_Big) for W8_to_Big
    crypto.o(i.ECCsetPointGenerator) refers to crypto.o(i.CopyBig) for CopyBig
    crypto.o(i.ECCsetPointGenerator) refers to crypto.o(i.InitBig) for InitBig
    crypto.o(i.ECCsetPrivKeyValue) refers to crypto.o(i.W8_to_Big) for W8_to_Big
    crypto.o(i.ECCsymmetricPoint) refers to crypto.o(i.ECCcopyPoint) for ECCcopyPoint
    crypto.o(i.ECCsymmetricPoint) refers to crypto.o(i.SubBig) for SubBig
    crypto.o(i.ECCvalidatePubKey) refers to crypto.o(i.ECCinitPoint) for ECCinitPoint
    crypto.o(i.ECCvalidatePubKey) refers to crypto.o(i.CompareBig) for CompareBig
    crypto.o(i.ECCvalidatePubKey) refers to crypto.o(i.ECCcopyPoint) for ECCcopyPoint
    crypto.o(i.ECCvalidatePubKey) refers to crypto.o(i.MontyInit) for MontyInit
    crypto.o(i.ECCvalidatePubKey) refers to crypto.o(i.StAllocBig) for StAllocBig
    crypto.o(i.ECCvalidatePubKey) refers to crypto.o(i.MontyMul) for MontyMul
    crypto.o(i.ECCvalidatePubKey) refers to crypto.o(i.CopyBig) for CopyBig
    crypto.o(i.ECCvalidatePubKey) refers to crypto.o(i.ModularAddBig) for ModularAddBig
    crypto.o(i.ECCvalidatePubKey) refers to crypto.o(i.StFreeBig) for StFreeBig
    crypto.o(i.ECCvalidatePubKey) refers to crypto.o(i.MontyKillAll) for MontyKillAll
    crypto.o(i.ECCvalidatePubKey) refers to crypto.o(i.ECCfreePoint) for ECCfreePoint
    crypto.o(i.ECDSAfreeSign) refers to crypto.o(i.StFreeBig) for StFreeBig
    crypto.o(i.ECDSAgetSignature) refers to crypto.o(i.Big_to_fixedW8) for Big_to_fixedW8
    crypto.o(i.ECDSAinitSign) refers to crypto.o(i.StAllocBig) for StAllocBig
    crypto.o(i.ECDSAinitSign) refers to crypto.o(i.StFreeBig) for StFreeBig
    crypto.o(i.ECDSAsetSignature) refers to crypto.o(i.W8_to_Big) for W8_to_Big
    crypto.o(i.ECDSAsign) refers to crypto.o(i.StAllocBig) for StAllocBig
    crypto.o(i.ECDSAsign) refers to crypto.o(i.ECCinitPoint) for ECCinitPoint
    crypto.o(i.ECDSAsign) refers to crypto.o(i.ECCsetPointGenerator) for ECCsetPointGenerator
    crypto.o(i.ECDSAsign) refers to crypto.o(i.MontyInit) for MontyInit
    crypto.o(i.ECDSAsign) refers to crypto.o(i.CountBits) for CountBits
    crypto.o(i.ECDSAsign) refers to crypto.o(i.RNGgenBytes) for RNGgenBytes
    crypto.o(i.ECDSAsign) refers to crypto.o(i.CompareBig) for CompareBig
    crypto.o(i.ECDSAsign) refers to crypto.o(i.IsZeroBig) for IsZeroBig
    crypto.o(i.ECDSAsign) refers to crypto.o(i.NAF_Binary_PointMul) for NAF_Binary_PointMul
    crypto.o(i.ECDSAsign) refers to crypto.o(i.Normalize) for Normalize
    crypto.o(i.ECDSAsign) refers to crypto.o(i.AddBig) for AddBig
    crypto.o(i.ECDSAsign) refers to crypto.o(i.SubBig) for SubBig
    crypto.o(i.ECDSAsign) refers to crypto.o(i.MontyKillAll) for MontyKillAll
    crypto.o(i.ECDSAsign) refers to crypto.o(i.ECCfreePoint) for ECCfreePoint
    crypto.o(i.ECDSAsign) refers to crypto.o(i.StFreeBig) for StFreeBig
    crypto.o(i.ECDSAsign) refers to crypto.o(i.ModularInvBig) for ModularInvBig
    crypto.o(i.ECDSAsign) refers to crypto.o(i.CopyBig) for CopyBig
    crypto.o(i.ECDSAsign) refers to crypto.o(i.MontyMul) for MontyMul
    crypto.o(i.ECDSAsign) refers to crypto.o(i.W8_to_Big) for W8_to_Big
    crypto.o(i.ECDSAsign) refers to crypto.o(i.RightShift) for RightShift
    crypto.o(i.ECDSAsign) refers to crypto.o(i.ModularAddBig) for ModularAddBig
    crypto.o(i.ECDSAsign) refers to crypto.o(i.MontyExit) for MontyExit
    crypto.o(i.ECDSAverify) refers to crypto.o(i.IsZeroBig) for IsZeroBig
    crypto.o(i.ECDSAverify) refers to crypto.o(i.CompareBig) for CompareBig
    crypto.o(i.ECDSAverify) refers to crypto.o(i.StAllocBig) for StAllocBig
    crypto.o(i.ECDSAverify) refers to crypto.o(i.CountBits) for CountBits
    crypto.o(i.ECDSAverify) refers to crypto.o(i.W8_to_Big) for W8_to_Big
    crypto.o(i.ECDSAverify) refers to crypto.o(i.RightShift) for RightShift
    crypto.o(i.ECDSAverify) refers to crypto.o(i.ModularInvBig) for ModularInvBig
    crypto.o(i.ECDSAverify) refers to crypto.o(i.MontyInit) for MontyInit
    crypto.o(i.ECDSAverify) refers to crypto.o(i.MontyMul) for MontyMul
    crypto.o(i.ECDSAverify) refers to crypto.o(i.MontyKillR2) for MontyKillR2
    crypto.o(i.ECDSAverify) refers to crypto.o(i.MontyKillAll) for MontyKillAll
    crypto.o(i.ECDSAverify) refers to crypto.o(i.ECCinitPoint) for ECCinitPoint
    crypto.o(i.ECDSAverify) refers to crypto.o(i.ECCsetPointGenerator) for ECCsetPointGenerator
    crypto.o(i.ECDSAverify) refers to crypto.o(i.Binary_DoublePointMul) for Binary_DoublePointMul
    crypto.o(i.ECDSAverify) refers to crypto.o(i.Normalize) for Normalize
    crypto.o(i.ECDSAverify) refers to crypto.o(i.SubBig) for SubBig
    crypto.o(i.ECDSAverify) refers to crypto.o(i.ECCfreePoint) for ECCfreePoint
    crypto.o(i.ECDSAverify) refers to crypto.o(i.StFreeBig) for StFreeBig
    crypto.o(i.ED25519keyGen) refers to crypto.o(i.SHA512_Init) for SHA512_Init
    crypto.o(i.ED25519keyGen) refers to crypto.o(i.SHA512Update) for SHA512Update
    crypto.o(i.ED25519keyGen) refers to crypto.o(i.SHA512_Finish) for SHA512_Finish
    crypto.o(i.ED25519keyGen) refers to crypto.o(i.sc25519_from32bytes) for sc25519_from32bytes
    crypto.o(i.ED25519keyGen) refers to crypto.o(i.ge25519_scalarmult_base) for ge25519_scalarmult_base
    crypto.o(i.ED25519keyGen) refers to crypto.o(i.ge25519_pack) for ge25519_pack
    crypto.o(i.ED25519keyGen) refers to memmovea.o(.text) for __aeabi_memmove
    crypto.o(i.ED25519sign) refers to crypto.o(i.SHA512_Init) for SHA512_Init
    crypto.o(i.ED25519sign) refers to crypto.o(i.SHA512Update) for SHA512Update
    crypto.o(i.ED25519sign) refers to crypto.o(i.SHA512_Finish) for SHA512_Finish
    crypto.o(i.ED25519sign) refers to crypto.o(i.sc25519_from64bytes) for sc25519_from64bytes
    crypto.o(i.ED25519sign) refers to crypto.o(i.ge25519_scalarmult_base) for ge25519_scalarmult_base
    crypto.o(i.ED25519sign) refers to crypto.o(i.ge25519_pack) for ge25519_pack
    crypto.o(i.ED25519sign) refers to crypto.o(i.sc25519_from32bytes) for sc25519_from32bytes
    crypto.o(i.ED25519sign) refers to crypto.o(i.sc25519_mul) for sc25519_mul
    crypto.o(i.ED25519sign) refers to crypto.o(i.sc25519_add) for sc25519_add
    crypto.o(i.ED25519sign) refers to crypto.o(i.sc25519_to32bytes) for sc25519_to32bytes
    crypto.o(i.ED25519verify) refers to crypto.o(i.ge25519_unpackneg_vartime) for ge25519_unpackneg_vartime
    crypto.o(i.ED25519verify) refers to crypto.o(i.sc25519_from32bytes) for sc25519_from32bytes
    crypto.o(i.ED25519verify) refers to crypto.o(i.SHA512_Init) for SHA512_Init
    crypto.o(i.ED25519verify) refers to crypto.o(i.SHA512Update) for SHA512Update
    crypto.o(i.ED25519verify) refers to crypto.o(i.SHA512_Finish) for SHA512_Finish
    crypto.o(i.ED25519verify) refers to crypto.o(i.sc25519_from64bytes) for sc25519_from64bytes
    crypto.o(i.ED25519verify) refers to crypto.o(i.ge25519_double_scalarmult_vartime) for ge25519_double_scalarmult_vartime
    crypto.o(i.ED25519verify) refers to crypto.o(i.ge25519_pack) for ge25519_pack
    crypto.o(i.ED25519verify) refers to crypto.o(.constdata) for .constdata
    crypto.o(i.FastDiv2) refers to crypto.o(i.IsZeroBig) for IsZeroBig
    crypto.o(i.FastDivInnerBase) refers to crypto.o(i.SetZeroBig) for SetZeroBig
    crypto.o(i.FastMul2) refers to crypto.o(i.IsZeroBig) for IsZeroBig
    crypto.o(i.FastMulInnerBase) refers to crypto.o(i.IsZeroBig) for IsZeroBig
    crypto.o(i.GenRndBN) refers to crypto.o(i.RNGgenBytes) for RNGgenBytes
    crypto.o(i.GenRndBNmodN) refers to crypto.o(i.CountBits) for CountBits
    crypto.o(i.GenRndBNmodN) refers to crypto.o(i.RNGgenBytes) for RNGgenBytes
    crypto.o(i.GenRndBNmodN) refers to crypto.o(i.CompareBig) for CompareBig
    crypto.o(i.HKDF_SHA512) refers to memseta.o(.text) for __aeabi_memclr4
    crypto.o(i.HKDF_SHA512) refers to crypto.o(i.HMAC_SHA512_Init) for HMAC_SHA512_Init
    crypto.o(i.HKDF_SHA512) refers to crypto.o(i.SHA512Update) for SHA512Update
    crypto.o(i.HKDF_SHA512) refers to crypto.o(i.HMAC_SHA512_Finish) for HMAC_SHA512_Finish
    crypto.o(i.HMAC_MD5_Append) refers to crypto.o(i.crl_u_MD5_Update) for crl_u_MD5_Update
    crypto.o(i.HMAC_MD5_Finish) refers to crypto.o(i.MD5_Finish) for MD5_Finish
    crypto.o(i.HMAC_MD5_Finish) refers to crypto.o(i.crl_u_MD5_Update) for crl_u_MD5_Update
    crypto.o(i.HMAC_MD5_Init) refers to crypto.o(i.crl_u_MD5_Update) for crl_u_MD5_Update
    crypto.o(i.HMAC_MD5_Init) refers to crypto.o(i.MD5_Finish) for MD5_Finish
    crypto.o(i.HMAC_SHA1_Append) refers to crypto.o(i.SHA1_Append) for SHA1_Append
    crypto.o(i.HMAC_SHA1_Finish) refers to crypto.o(i.SHA1_Finish) for SHA1_Finish
    crypto.o(i.HMAC_SHA1_Finish) refers to crypto.o(i.SHA1_Append) for SHA1_Append
    crypto.o(i.HMAC_SHA1_Init) refers to crypto.o(i.SHA1_Append) for SHA1_Append
    crypto.o(i.HMAC_SHA1_Init) refers to crypto.o(i.SHA1_Finish) for SHA1_Finish
    crypto.o(i.HMAC_SHA224_Append) refers to crypto.o(i.SHA256Update) for SHA256Update
    crypto.o(i.HMAC_SHA224_Finish) refers to crypto.o(i.SHA224_Finish) for SHA224_Finish
    crypto.o(i.HMAC_SHA224_Finish) refers to crypto.o(i.SHA256Update) for SHA256Update
    crypto.o(i.HMAC_SHA224_Init) refers to crypto.o(i.SHA256Update) for SHA256Update
    crypto.o(i.HMAC_SHA224_Init) refers to crypto.o(i.SHA224_Finish) for SHA224_Finish
    crypto.o(i.HMAC_SHA256_Append) refers to crypto.o(i.SHA256Update) for SHA256Update
    crypto.o(i.HMAC_SHA256_Finish) refers to crypto.o(i.SHA256_Finish) for SHA256_Finish
    crypto.o(i.HMAC_SHA256_Finish) refers to crypto.o(i.SHA256Update) for SHA256Update
    crypto.o(i.HMAC_SHA256_Init) refers to crypto.o(i.SHA256Update) for SHA256Update
    crypto.o(i.HMAC_SHA256_Init) refers to crypto.o(i.SHA256_Finish) for SHA256_Finish
    crypto.o(i.HMAC_SHA384_Append) refers to crypto.o(i.SHA512Update) for SHA512Update
    crypto.o(i.HMAC_SHA384_Finish) refers to crypto.o(i.SHA384_Finish) for SHA384_Finish
    crypto.o(i.HMAC_SHA384_Finish) refers to crypto.o(i.SHA512Update) for SHA512Update
    crypto.o(i.HMAC_SHA384_Init) refers to crypto.o(i.SHA512Update) for SHA512Update
    crypto.o(i.HMAC_SHA384_Init) refers to crypto.o(i.SHA384_Finish) for SHA384_Finish
    crypto.o(i.HMAC_SHA512_Append) refers to crypto.o(i.SHA512Update) for SHA512Update
    crypto.o(i.HMAC_SHA512_Finish) refers to memseta.o(.text) for __aeabi_memclr4
    crypto.o(i.HMAC_SHA512_Finish) refers to crypto.o(i.SHA512_Finish) for SHA512_Finish
    crypto.o(i.HMAC_SHA512_Finish) refers to crypto.o(i.SHA512_Init) for SHA512_Init
    crypto.o(i.HMAC_SHA512_Finish) refers to crypto.o(i.SHA512Update) for SHA512Update
    crypto.o(i.HMAC_SHA512_Init) refers to crypto.o(i.SHA512_Init) for SHA512_Init
    crypto.o(i.HMAC_SHA512_Init) refers to crypto.o(i.SHA512Update) for SHA512Update
    crypto.o(i.HMAC_SHA512_Init) refers to crypto.o(i.SHA512_Finish) for SHA512_Finish
    crypto.o(i.MD5_Append) refers to crypto.o(i.crl_u_MD5_Update) for crl_u_MD5_Update
    crypto.o(i.MD5_Finish) refers to crypto.o(i.crl_u_MD5_Finish) for crl_u_MD5_Finish
    crypto.o(i.ModularAddBig) refers to crypto.o(i.AddBig) for AddBig
    crypto.o(i.ModularAddBig) refers to crypto.o(i.CompareBig) for CompareBig
    crypto.o(i.ModularAddBig) refers to crypto.o(i.SubBig) for SubBig
    crypto.o(i.ModularExpSlidWin) refers to crypto.o(i.MontyInit) for MontyInit
    crypto.o(i.ModularExpSlidWin) refers to crypto.o(i.MontyMul) for MontyMul
    crypto.o(i.ModularExpSlidWin) refers to crypto.o(i.MontyKillR2) for MontyKillR2
    crypto.o(i.ModularExpSlidWin) refers to crypto.o(i.StAllocBig) for StAllocBig
    crypto.o(i.ModularExpSlidWin) refers to crypto.o(i.InitBig) for InitBig
    crypto.o(i.ModularExpSlidWin) refers to crypto.o(i.CopyBig) for CopyBig
    crypto.o(i.ModularExpSlidWin) refers to crypto.o(i.MontyExit) for MontyExit
    crypto.o(i.ModularExpSlidWin) refers to crypto.o(i.MontyKillAll) for MontyKillAll
    crypto.o(i.ModularExpSlidWin) refers to crypto.o(i.StFreeBig) for StFreeBig
    crypto.o(i.ModularFastMul2) refers to crypto.o(i.FastMul2) for FastMul2
    crypto.o(i.ModularFastMul2) refers to crypto.o(i.CompareBig) for CompareBig
    crypto.o(i.ModularFastMul2) refers to crypto.o(i.SubBig) for SubBig
    crypto.o(i.ModularInvBig) refers to crypto.o(i.EvenBig) for EvenBig
    crypto.o(i.ModularInvBig) refers to crypto.o(i.StAllocBig) for StAllocBig
    crypto.o(i.ModularInvBig) refers to crypto.o(i.CopyBig) for CopyBig
    crypto.o(i.ModularInvBig) refers to crypto.o(i.InitBig) for InitBig
    crypto.o(i.ModularInvBig) refers to crypto.o(i.IsZeroBig) for IsZeroBig
    crypto.o(i.ModularInvBig) refers to crypto.o(i.FastDiv2) for FastDiv2
    crypto.o(i.ModularInvBig) refers to crypto.o(i.AddBig) for AddBig
    crypto.o(i.ModularInvBig) refers to crypto.o(i.CompareBig) for CompareBig
    crypto.o(i.ModularInvBig) refers to crypto.o(i.SubBig) for SubBig
    crypto.o(i.ModularInvBig) refers to crypto.o(i.SignBig) for SignBig
    crypto.o(i.ModularInvBig) refers to crypto.o(i.StFreeBig) for StFreeBig
    crypto.o(i.ModularSubBig) refers to crypto.o(i.SubBig) for SubBig
    crypto.o(i.ModularSubBig) refers to crypto.o(i.SignBig) for SignBig
    crypto.o(i.ModularSubBig) refers to crypto.o(i.AddBig) for AddBig
    crypto.o(i.MontyExit) refers to crypto.o(i.StAllocBig) for StAllocBig
    crypto.o(i.MontyExit) refers to crypto.o(i.InitBig) for InitBig
    crypto.o(i.MontyExit) refers to crypto.o(i.MontyMul) for MontyMul
    crypto.o(i.MontyExit) refers to crypto.o(i.StFreeBig) for StFreeBig
    crypto.o(i.MontyInit) refers to crypto.o(i.StAllocBig) for StAllocBig
    crypto.o(i.MontyInit) refers to crypto.o(i.InitBig) for InitBig
    crypto.o(i.MontyInit) refers to crypto.o(i.StFreeBig) for StFreeBig
    crypto.o(i.MontyInit) refers to crypto.o(i.CopyBig) for CopyBig
    crypto.o(i.MontyInit) refers to crypto.o(i.CountBits) for CountBits
    crypto.o(i.MontyInit) refers to crypto.o(i.LeftShift) for LeftShift
    crypto.o(i.MontyInit) refers to crypto.o(i.SubBig) for SubBig
    crypto.o(i.MontyInit) refers to crypto.o(i.FastMulInnerBase) for FastMulInnerBase
    crypto.o(i.MontyInit) refers to crypto.o(i.MulBigbyUnInt) for MulBigbyUnInt
    crypto.o(i.MontyInit) refers to crypto.o(i.CompareBig) for CompareBig
    crypto.o(i.MontyJacProjAddPoints) refers to crypto.o(i.StAllocBig) for StAllocBig
    crypto.o(i.MontyJacProjAddPoints) refers to crypto.o(i.ECCcopyPoint) for ECCcopyPoint
    crypto.o(i.MontyJacProjAddPoints) refers to crypto.o(i.CopyBig) for CopyBig
    crypto.o(i.MontyJacProjAddPoints) refers to crypto.o(i.MontyMul) for MontyMul
    crypto.o(i.MontyJacProjAddPoints) refers to crypto.o(i.ModularSubBig) for ModularSubBig
    crypto.o(i.MontyJacProjAddPoints) refers to crypto.o(i.IsZeroBig) for IsZeroBig
    crypto.o(i.MontyJacProjAddPoints) refers to crypto.o(i.MontyJacProjDoublePoint) for MontyJacProjDoublePoint
    crypto.o(i.MontyJacProjAddPoints) refers to crypto.o(i.ModularFastMul2) for ModularFastMul2
    crypto.o(i.MontyJacProjAddPoints) refers to crypto.o(i.StFreeBig) for StFreeBig
    crypto.o(i.MontyJacProjDoublePoint) refers to crypto.o(i.StAllocBig) for StAllocBig
    crypto.o(i.MontyJacProjDoublePoint) refers to crypto.o(i.InitBig) for InitBig
    crypto.o(i.MontyJacProjDoublePoint) refers to crypto.o(i.MontyMul) for MontyMul
    crypto.o(i.MontyJacProjDoublePoint) refers to crypto.o(i.ModularFastMul2) for ModularFastMul2
    crypto.o(i.MontyJacProjDoublePoint) refers to crypto.o(i.AddBig) for AddBig
    crypto.o(i.MontyJacProjDoublePoint) refers to crypto.o(i.CompareBig) for CompareBig
    crypto.o(i.MontyJacProjDoublePoint) refers to crypto.o(i.ModularSubBig) for ModularSubBig
    crypto.o(i.MontyJacProjDoublePoint) refers to crypto.o(i.ModularAddBig) for ModularAddBig
    crypto.o(i.MontyJacProjDoublePoint) refers to crypto.o(i.CopyBig) for CopyBig
    crypto.o(i.MontyJacProjDoublePoint) refers to crypto.o(i.StFreeBig) for StFreeBig
    crypto.o(i.MontyKillAll) refers to crypto.o(i.StFreeBig) for StFreeBig
    crypto.o(i.MontyKillR2) refers to crypto.o(i.StFreeBig) for StFreeBig
    crypto.o(i.MontyMul) refers to crypto.o(i.StAllocBig) for StAllocBig
    crypto.o(i.MontyMul) refers to crypto.o(i.InitBig) for InitBig
    crypto.o(i.MontyMul) refers to crypto.o(i.__ARM_common_ll_muluu) for __ARM_common_ll_muluu
    crypto.o(i.MontyMul) refers to crypto.o(i.CompareBig) for CompareBig
    crypto.o(i.MontyMul) refers to crypto.o(i.Sub_Moduli_Big) for Sub_Moduli_Big
    crypto.o(i.MontyMul) refers to crypto.o(i.CopyBig) for CopyBig
    crypto.o(i.MontyMul) refers to crypto.o(i.StFreeBig) for StFreeBig
    crypto.o(i.MulBigbyUnInt) refers to crypto.o(i.__ARM_common_ll_muluu) for __ARM_common_ll_muluu
    crypto.o(i.MulBigbyUnInt) refers to crypto.o(i.SetZeroBig) for SetZeroBig
    crypto.o(i.NAF_Binary_PointMul) refers to crypto.o(i.ECCinitPoint) for ECCinitPoint
    crypto.o(i.NAF_Binary_PointMul) refers to crypto.o(i.ECCcopyPoint) for ECCcopyPoint
    crypto.o(i.NAF_Binary_PointMul) refers to crypto.o(i.ECCpoint2Monty) for ECCpoint2Monty
    crypto.o(i.NAF_Binary_PointMul) refers to crypto.o(i.StAllocBig) for StAllocBig
    crypto.o(i.NAF_Binary_PointMul) refers to crypto.o(i.InitBig) for InitBig
    crypto.o(i.NAF_Binary_PointMul) refers to crypto.o(i.GiveBit) for GiveBit
    crypto.o(i.NAF_Binary_PointMul) refers to crypto.o(i.ECCsymmetricPoint) for ECCsymmetricPoint
    crypto.o(i.NAF_Binary_PointMul) refers to crypto.o(i.MontyJacProjDoublePoint) for MontyJacProjDoublePoint
    crypto.o(i.NAF_Binary_PointMul) refers to crypto.o(i.MontyJacProjAddPoints) for MontyJacProjAddPoints
    crypto.o(i.NAF_Binary_PointMul) refers to crypto.o(i.ECCfreePoint) for ECCfreePoint
    crypto.o(i.NAF_Binary_PointMul) refers to crypto.o(i.StFreeBig) for StFreeBig
    crypto.o(i.NAF_Binary_PointMul) refers to crypto.o(.constdata) for .constdata
    crypto.o(i.Normalize) refers to crypto.o(i.ECCcopyPoint) for ECCcopyPoint
    crypto.o(i.Normalize) refers to crypto.o(i.MontyExit) for MontyExit
    crypto.o(i.Normalize) refers to crypto.o(i.CopyBig) for CopyBig
    crypto.o(i.Normalize) refers to crypto.o(i.MontyMul) for MontyMul
    crypto.o(i.Normalize) refers to crypto.o(i.ModularInvBig) for ModularInvBig
    crypto.o(i.Normalize) refers to crypto.o(i.StAllocBig) for StAllocBig
    crypto.o(i.Normalize) refers to crypto.o(i.StFreeBig) for StFreeBig
    crypto.o(i.Normalize) refers to crypto.o(i.ECCpointFromMonty) for ECCpointFromMonty
    crypto.o(i.Poly1305_Auth_Append) refers to crypto.o(i.Poly1305_Core_Update) for Poly1305_Core_Update
    crypto.o(i.Poly1305_Auth_Finish) refers to crypto.o(i.Poly1305_Core_Finish) for Poly1305_Core_Finish
    crypto.o(i.Poly1305_Auth_Init) refers to crypto.o(i.AESstdInit) for AESstdInit
    crypto.o(i.Poly1305_Auth_Init) refers to crypto.o(i.AES_ECB_Encrypt_Append) for AES_ECB_Encrypt_Append
    crypto.o(i.Poly1305_Core_Update) refers to crypto.o(i.__ARM_common_ll_muluu) for __ARM_common_ll_muluu
    crypto.o(i.Poly1305_Core_Update) refers to llmul.o(.text) for __aeabi_lmul
    crypto.o(i.Poly1305_Verify_Append) refers to crypto.o(i.Poly1305_Auth_Append) for Poly1305_Auth_Append
    crypto.o(i.Poly1305_Verify_Finish) refers to crypto.o(i.Poly1305_Core_Finish) for Poly1305_Core_Finish
    crypto.o(i.Poly1305_Verify_Init) refers to crypto.o(i.Poly1305_Auth_Init) for Poly1305_Auth_Init
    crypto.o(i.RNGgenBytes) refers to crypto.o(i.crl_DRBG_AES128_Generate) for crl_DRBG_AES128_Generate
    crypto.o(i.RNGgenWords) refers to crypto.o(i.RNGgenBytes) for RNGgenBytes
    crypto.o(i.RNGinit) refers to memseta.o(.text) for __aeabi_memclr4
    crypto.o(i.RNGinit) refers to memmovea.o(.text) for __aeabi_memcpy4
    crypto.o(i.RNGinit) refers to crypto.o(i.DRBG_AES128_Block_cipher_df) for DRBG_AES128_Block_cipher_df
    crypto.o(i.RNGinit) refers to crypto.o(i.DRBG_AES128_Update) for DRBG_AES128_Update
    crypto.o(i.RNGinit) refers to crypto.o(.constdata) for .constdata
    crypto.o(i.RNGreseed) refers to memseta.o(.text) for __aeabi_memclr4
    crypto.o(i.RNGreseed) refers to memmovea.o(.text) for __aeabi_memcpy
    crypto.o(i.RNGreseed) refers to crypto.o(i.DRBG_AES128_Block_cipher_df) for DRBG_AES128_Block_cipher_df
    crypto.o(i.RNGreseed) refers to crypto.o(i.AES_keyschedule_enc_LL) for AES_keyschedule_enc_LL
    crypto.o(i.RNGreseed) refers to crypto.o(i.DRBG_AES128_Update) for DRBG_AES128_Update
    crypto.o(i.RSASP1) refers to crypto.o(i.crl_ModularExp) for crl_ModularExp
    crypto.o(i.RSAVP1) refers to crypto.o(i.crl_ModularExp) for crl_ModularExp
    crypto.o(i.RSA_PKCS1v15_Decrypt) refers to crypto.o(i.RSASP1) for RSASP1
    crypto.o(i.RSA_PKCS1v15_Decrypt) refers to idiv.o(.text) for __aeabi_idivmod
    crypto.o(i.RSA_PKCS1v15_Encrypt) refers to crypto.o(i.crl_DRBG_AES128_Generate) for crl_DRBG_AES128_Generate
    crypto.o(i.RSA_PKCS1v15_Encrypt) refers to crypto.o(i.RSAVP1) for RSAVP1
    crypto.o(i.RSA_PKCS1v15_Sign) refers to crypto.o(i.RSASP1) for RSASP1
    crypto.o(i.RSA_PKCS1v15_Verify) refers to crypto.o(i.RSAVP1) for RSAVP1
    crypto.o(i.SHA1Final) refers to crypto.o(i.SHA1Transform) for SHA1Transform
    crypto.o(i.SHA1Final) refers to memseta.o(.text) for __aeabi_memclr4
    crypto.o(i.SHA1Final) refers to memmovea.o(.text) for __aeabi_memmove4
    crypto.o(i.SHA1Update) refers to memmovea.o(.text) for __aeabi_memcpy
    crypto.o(i.SHA1Update) refers to crypto.o(i.SHA1Transform) for SHA1Transform
    crypto.o(i.SHA1_Append) refers to memmovea.o(.text) for __aeabi_memcpy
    crypto.o(i.SHA1_Append) refers to crypto.o(i.SHA1Transform) for SHA1Transform
    crypto.o(i.SHA1_Finish) refers to crypto.o(i.SHA1Final) for SHA1Final
    crypto.o(i.SHA224Final) refers to crypto.o(i.SHA256Transform) for SHA256Transform
    crypto.o(i.SHA224Final) refers to memseta.o(.text) for __aeabi_memclr4
    crypto.o(i.SHA224Final) refers to memmovea.o(.text) for __aeabi_memmove4
    crypto.o(i.SHA224_Append) refers to crypto.o(i.SHA256Update) for SHA256Update
    crypto.o(i.SHA224_Finish) refers to crypto.o(i.SHA224Final) for SHA224Final
    crypto.o(i.SHA256Final) refers to crypto.o(i.SHA256Transform) for SHA256Transform
    crypto.o(i.SHA256Final) refers to memseta.o(.text) for __aeabi_memclr4
    crypto.o(i.SHA256Final) refers to memmovea.o(.text) for __aeabi_memmove4
    crypto.o(i.SHA256Transform) refers to crypto.o(.constdata) for .constdata
    crypto.o(i.SHA256Update) refers to memmovea.o(.text) for __aeabi_memcpy
    crypto.o(i.SHA256Update) refers to crypto.o(i.SHA256Transform) for SHA256Transform
    crypto.o(i.SHA256_Append) refers to crypto.o(i.SHA256Update) for SHA256Update
    crypto.o(i.SHA256_Finish) refers to crypto.o(i.SHA256Final) for SHA256Final
    crypto.o(i.SHA384Final) refers to crypto.o(i.SHA512Transform) for SHA512Transform
    crypto.o(i.SHA384Final) refers to memseta.o(.text) for __aeabi_memclr4
    crypto.o(i.SHA384Final) refers to memmovea.o(.text) for __aeabi_memmove4
    crypto.o(i.SHA384_Append) refers to crypto.o(i.SHA512Update) for SHA512Update
    crypto.o(i.SHA384_Finish) refers to crypto.o(i.SHA384Final) for SHA384Final
    crypto.o(i.SHA512Final) refers to crypto.o(i.SHA512Transform) for SHA512Transform
    crypto.o(i.SHA512Final) refers to memseta.o(.text) for __aeabi_memclr4
    crypto.o(i.SHA512Final) refers to memmovea.o(.text) for __aeabi_memmove4
    crypto.o(i.SHA512Transform) refers to crypto.o(.constdata) for .constdata
    crypto.o(i.SHA512Update) refers to memmovea.o(.text) for __aeabi_memcpy
    crypto.o(i.SHA512Update) refers to crypto.o(i.SHA512Transform) for SHA512Transform
    crypto.o(i.SHA512_Append) refers to crypto.o(i.SHA512Update) for SHA512Update
    crypto.o(i.SHA512_Finish) refers to crypto.o(i.SHA512Final) for SHA512Final
    crypto.o(i.SubBig) refers to crypto.o(i.StAllocBig) for StAllocBig
    crypto.o(i.SubBig) refers to crypto.o(i.CompareBig) for CompareBig
    crypto.o(i.SubBig) refers to crypto.o(i.Add_Moduli_Big) for Add_Moduli_Big
    crypto.o(i.SubBig) refers to crypto.o(i.Sub_Moduli_Big) for Sub_Moduli_Big
    crypto.o(i.SubBig) refers to crypto.o(i.SetZeroBig) for SetZeroBig
    crypto.o(i.SubBig) refers to crypto.o(i.InitBig) for InitBig
    crypto.o(i.SubBig) refers to crypto.o(i.CopyBig) for CopyBig
    crypto.o(i.SubBig) refers to crypto.o(i.StFreeBig) for StFreeBig
    crypto.o(i.TDES_CBC_Decrypt_Append) refers to crypto.o(i.desfunc) for desfunc
    crypto.o(i.TDES_CBC_Decrypt_Init) refers to crypto.o(i.TDESstdInit) for TDESstdInit
    crypto.o(i.TDES_CBC_Encrypt_Append) refers to crypto.o(i.desfunc) for desfunc
    crypto.o(i.TDES_CBC_Encrypt_Init) refers to crypto.o(i.TDESstdInit) for TDESstdInit
    crypto.o(i.TDES_ECB_Decrypt_Append) refers to crypto.o(i.TDES_ECB_Encrypt_Append) for TDES_ECB_Encrypt_Append
    crypto.o(i.TDES_ECB_Decrypt_Init) refers to crypto.o(i.TDESstdInit) for TDESstdInit
    crypto.o(i.TDES_ECB_Encrypt_Append) refers to crypto.o(i.desfunc) for desfunc
    crypto.o(i.TDES_ECB_Encrypt_Init) refers to crypto.o(i.TDESstdInit) for TDESstdInit
    crypto.o(i.TDESstdInit) refers to crypto.o(i.deskey) for deskey
    crypto.o(i.W8_to_Big) refers to crypto.o(i.SetZeroBig) for SetZeroBig
    crypto.o(i.barrett_reduce) refers to crypto.o(i.__ARM_common_ll_muluu) for __ARM_common_ll_muluu
    crypto.o(i.barrett_reduce) refers to crypto.o(i.reduce_add_sub) for reduce_add_sub
    crypto.o(i.barrett_reduce) refers to crypto.o(.constdata) for .constdata
    crypto.o(i.crl_DRBG_AES128_Generate) refers to crypto.o(i.DRBG_AES128_Block_cipher_df) for DRBG_AES128_Block_cipher_df
    crypto.o(i.crl_DRBG_AES128_Generate) refers to crypto.o(i.AES_keyschedule_enc_LL) for AES_keyschedule_enc_LL
    crypto.o(i.crl_DRBG_AES128_Generate) refers to crypto.o(i.DRBG_AES128_Update) for DRBG_AES128_Update
    crypto.o(i.crl_DRBG_AES128_Generate) refers to crypto.o(i.AES_general_SW_enc) for AES_general_SW_enc
    crypto.o(i.crl_DRBG_AES128_Instantiate) refers to memseta.o(.text) for __aeabi_memclr4
    crypto.o(i.crl_DRBG_AES128_Instantiate) refers to memmovea.o(.text) for __aeabi_memcpy4
    crypto.o(i.crl_DRBG_AES128_Instantiate) refers to crypto.o(i.DRBG_AES128_Block_cipher_df) for DRBG_AES128_Block_cipher_df
    crypto.o(i.crl_DRBG_AES128_Instantiate) refers to crypto.o(i.DRBG_AES128_Update) for DRBG_AES128_Update
    crypto.o(i.crl_DRBG_AES128_Instantiate) refers to crypto.o(.constdata) for .constdata
    crypto.o(i.crl_DRBG_AES128_Reseed) refers to memseta.o(.text) for __aeabi_memclr4
    crypto.o(i.crl_DRBG_AES128_Reseed) refers to memmovea.o(.text) for __aeabi_memcpy
    crypto.o(i.crl_DRBG_AES128_Reseed) refers to crypto.o(i.DRBG_AES128_Block_cipher_df) for DRBG_AES128_Block_cipher_df
    crypto.o(i.crl_DRBG_AES128_Reseed) refers to crypto.o(i.AES_keyschedule_enc_LL) for AES_keyschedule_enc_LL
    crypto.o(i.crl_DRBG_AES128_Reseed) refers to crypto.o(i.DRBG_AES128_Update) for DRBG_AES128_Update
    crypto.o(i.crl_ModularExp) refers to crypto.o(i.StAllocBig) for StAllocBig
    crypto.o(i.crl_ModularExp) refers to crypto.o(i.W8_to_Big) for W8_to_Big
    crypto.o(i.crl_ModularExp) refers to crypto.o(i.CompareBig) for CompareBig
    crypto.o(i.crl_ModularExp) refers to crypto.o(i.ModularExpSlidWin) for ModularExpSlidWin
    crypto.o(i.crl_ModularExp) refers to crypto.o(i.CountBytes) for CountBytes
    crypto.o(i.crl_ModularExp) refers to crypto.o(i.Big_to_W8) for Big_to_W8
    crypto.o(i.crl_ModularExp) refers to crypto.o(i.StFreeBig) for StFreeBig
    crypto.o(i.crl_u_MD5_Finish) refers to crypto.o(i.crl_u_MD5_Update) for crl_u_MD5_Update
    crypto.o(i.crl_u_MD5_Finish) refers to crypto.o(.constdata) for .constdata
    crypto.o(i.crl_u_MD5_Update) refers to memmovea.o(.text) for __aeabi_memcpy
    crypto.o(i.crl_u_MD5_Update) refers to crypto.o(i.md5_process) for md5_process
    crypto.o(i.desfunc) refers to crypto.o(.constdata) for .constdata
    crypto.o(i.deskey) refers to memmovea.o(.text) for __aeabi_memcpy4
    crypto.o(i.deskey) refers to crypto.o(.constdata) for .constdata
    crypto.o(i.ed25519_add) refers to crypto.o(i.fe25519_sub) for fe25519_sub
    crypto.o(i.ed25519_add) refers to crypto.o(i.fe25519_mul) for fe25519_mul
    crypto.o(i.ed25519_add) refers to crypto.o(i.fe25519_add) for fe25519_add
    crypto.o(i.ed25519_add) refers to crypto.o(.constdata) for .constdata
    crypto.o(i.fe25519_add) refers to crypto.o(i.reduceRS) for reduceRS
    crypto.o(i.fe25519_freeze) refers to crypto.o(i.fe25519_cmov) for fe25519_cmov
    crypto.o(i.fe25519_getparity) refers to crypto.o(i.fe25519_freeze) for fe25519_freeze
    crypto.o(i.fe25519_invert) refers to crypto.o(i.fe25519_square) for fe25519_square
    crypto.o(i.fe25519_invert) refers to crypto.o(i.fe25519_mul) for fe25519_mul
    crypto.o(i.fe25519_iseq_vartime) refers to crypto.o(i.fe25519_freeze) for fe25519_freeze
    crypto.o(i.fe25519_mul) refers to memseta.o(.text) for __aeabi_memclr4
    crypto.o(i.fe25519_mul) refers to crypto.o(i.__ARM_common_ll_muluu) for __ARM_common_ll_muluu
    crypto.o(i.fe25519_mul) refers to crypto.o(i.reduceRS) for reduceRS
    crypto.o(i.fe25519_mult121665) refers to crypto.o(i.__ARM_common_ll_muluu) for __ARM_common_ll_muluu
    crypto.o(i.fe25519_mult121665) refers to crypto.o(i.reduceRS) for reduceRS
    crypto.o(i.fe25519_neg) refers to crypto.o(i.fe25519_setzero) for fe25519_setzero
    crypto.o(i.fe25519_neg) refers to crypto.o(i.fe25519_sub) for fe25519_sub
    crypto.o(i.fe25519_pack) refers to crypto.o(i.fe25519_freeze) for fe25519_freeze
    crypto.o(i.fe25519_pow2523) refers to crypto.o(i.fe25519_square) for fe25519_square
    crypto.o(i.fe25519_pow2523) refers to crypto.o(i.fe25519_mul) for fe25519_mul
    crypto.o(i.fe25519_square) refers to crypto.o(i.fe25519_mul) for fe25519_mul
    crypto.o(i.fe25519_sub) refers to llmul.o(.text) for __aeabi_lmul
    crypto.o(i.ge25519_double_scalarmult_vartime) refers to crypto.o(i.fe25519_setzero) for fe25519_setzero
    crypto.o(i.ge25519_double_scalarmult_vartime) refers to crypto.o(i.fe25519_setone) for fe25519_setone
    crypto.o(i.ge25519_double_scalarmult_vartime) refers to crypto.o(i.ed25519_add) for ed25519_add
    crypto.o(i.ge25519_double_scalarmult_vartime) refers to crypto.o(i.fe25519_mul) for fe25519_mul
    crypto.o(i.ge25519_double_scalarmult_vartime) refers to crypto.o(i.fe25519_add) for fe25519_add
    crypto.o(i.ge25519_double_scalarmult_vartime) refers to crypto.o(i.fe25519_sub) for fe25519_sub
    crypto.o(i.ge25519_double_scalarmult_vartime) refers to crypto.o(i.fe25519_neg) for fe25519_neg
    crypto.o(i.ge25519_pack) refers to crypto.o(i.fe25519_invert) for fe25519_invert
    crypto.o(i.ge25519_pack) refers to crypto.o(i.fe25519_mul) for fe25519_mul
    crypto.o(i.ge25519_pack) refers to crypto.o(i.fe25519_pack) for fe25519_pack
    crypto.o(i.ge25519_pack) refers to crypto.o(i.fe25519_getparity) for fe25519_getparity
    crypto.o(i.ge25519_scalarmult_base) refers to crypto.o(i.fe25519_setzero) for fe25519_setzero
    crypto.o(i.ge25519_scalarmult_base) refers to crypto.o(i.fe25519_setone) for fe25519_setone
    crypto.o(i.ge25519_scalarmult_base) refers to crypto.o(i.fe25519_mul) for fe25519_mul
    crypto.o(i.ge25519_scalarmult_base) refers to crypto.o(i.fe25519_add) for fe25519_add
    crypto.o(i.ge25519_scalarmult_base) refers to crypto.o(i.fe25519_sub) for fe25519_sub
    crypto.o(i.ge25519_scalarmult_base) refers to crypto.o(i.fe25519_neg) for fe25519_neg
    crypto.o(i.ge25519_scalarmult_base) refers to crypto.o(i.ed25519_add) for ed25519_add
    crypto.o(i.ge25519_scalarmult_base) refers to crypto.o(i.fe25519_cmov) for fe25519_cmov
    crypto.o(i.ge25519_scalarmult_base) refers to crypto.o(.constdata) for .constdata
    crypto.o(i.ge25519_unpackneg_vartime) refers to crypto.o(i.fe25519_setone) for fe25519_setone
    crypto.o(i.ge25519_unpackneg_vartime) refers to crypto.o(i.fe25519_unpack) for fe25519_unpack
    crypto.o(i.ge25519_unpackneg_vartime) refers to crypto.o(i.fe25519_square) for fe25519_square
    crypto.o(i.ge25519_unpackneg_vartime) refers to crypto.o(i.fe25519_mul) for fe25519_mul
    crypto.o(i.ge25519_unpackneg_vartime) refers to crypto.o(i.fe25519_sub) for fe25519_sub
    crypto.o(i.ge25519_unpackneg_vartime) refers to crypto.o(i.fe25519_add) for fe25519_add
    crypto.o(i.ge25519_unpackneg_vartime) refers to crypto.o(i.fe25519_pow2523) for fe25519_pow2523
    crypto.o(i.ge25519_unpackneg_vartime) refers to crypto.o(i.fe25519_iseq_vartime) for fe25519_iseq_vartime
    crypto.o(i.ge25519_unpackneg_vartime) refers to crypto.o(i.fe25519_getparity) for fe25519_getparity
    crypto.o(i.ge25519_unpackneg_vartime) refers to crypto.o(i.fe25519_neg) for fe25519_neg
    crypto.o(i.ge25519_unpackneg_vartime) refers to crypto.o(.constdata) for .constdata
    crypto.o(i.gfmul) refers to crypto.o(.constdata) for .constdata
    crypto.o(i.md5_process) refers to memmovea.o(.text) for __aeabi_memcpy
    crypto.o(i.reduceRS) refers to crypto.o(i.__ARM_common_ll_muluu) for __ARM_common_ll_muluu
    crypto.o(i.reduceRS) refers to llmul.o(.text) for __aeabi_lmul
    crypto.o(i.reduce_add_sub) refers to crypto.o(.constdata) for .constdata
    crypto.o(i.salsa20_wordtobyte) refers to memmovea.o(.text) for __aeabi_memcpy4
    crypto.o(i.sc25519_add) refers to crypto.o(i.reduce_add_sub) for reduce_add_sub
    crypto.o(i.sc25519_from32bytes) refers to crypto.o(i.barrett_reduce) for barrett_reduce
    crypto.o(i.sc25519_from64bytes) refers to crypto.o(i.barrett_reduce) for barrett_reduce
    crypto.o(i.sc25519_mul) refers to memseta.o(.text) for __aeabi_memclr4
    crypto.o(i.sc25519_mul) refers to crypto.o(i.__ARM_common_ll_muluu) for __ARM_common_ll_muluu
    crypto.o(i.sc25519_mul) refers to crypto.o(i.barrett_reduce) for barrett_reduce
    entry.o(.ARM.Collect$$$$00000000) refers (Special) to entry10a.o(.ARM.Collect$$$$0000000D) for __rt_final_cpp
    entry.o(.ARM.Collect$$$$00000000) refers (Special) to entry11a.o(.ARM.Collect$$$$0000000F) for __rt_final_exit
    entry.o(.ARM.Collect$$$$00000000) refers (Special) to entry7b.o(.ARM.Collect$$$$00000008) for _main_clock
    entry.o(.ARM.Collect$$$$00000000) refers (Special) to entry8b.o(.ARM.Collect$$$$0000000A) for _main_cpp_init
    entry.o(.ARM.Collect$$$$00000000) refers (Special) to entry9a.o(.ARM.Collect$$$$0000000B) for _main_init
    entry.o(.ARM.Collect$$$$00000000) refers (Special) to entry5.o(.ARM.Collect$$$$00000004) for _main_scatterload
    entry.o(.ARM.Collect$$$$00000000) refers (Special) to entry2.o(.ARM.Collect$$$$00000001) for _main_stk
    idiv.o(.text) refers to uidiv.o(.text) for __aeabi_uidivmod
    uldiv.o(.text) refers to llushr.o(.text) for __aeabi_llsr
    uldiv.o(.text) refers to llshl.o(.text) for __aeabi_llsl
    llmul.o(.text) refers to llshl.o(.text) for __aeabi_llsl
    rand.o(.text) refers to rand.o(.data) for .data
    entry2.o(.ARM.Collect$$$$00000001) refers to entry2.o(.ARM.Collect$$$$00002712) for __lit__00000000
    entry2.o(.ARM.Collect$$$$00002712) refers to startup_stm32l051xx.o(STACK) for __initial_sp
    entry2.o(__vectab_stack_and_reset_area) refers to startup_stm32l051xx.o(STACK) for __initial_sp
    entry2.o(__vectab_stack_and_reset_area) refers to entry.o(.ARM.Collect$$$$00000000) for __main
    entry5.o(.ARM.Collect$$$$00000004) refers to init.o(.text) for __scatterload
    entry9a.o(.ARM.Collect$$$$0000000B) refers to main.o(i.main) for main
    entry9b.o(.ARM.Collect$$$$0000000C) refers to main.o(i.main) for main
    init.o(.text) refers to entry5.o(.ARM.Collect$$$$00000004) for __main_after_scatterload


==============================================================================

Removing Unused input sections from the image.

    Removing startup_stm32l051xx.o(HEAP), (512 bytes).
    Removing adxl362.o(.rev16_text), (4 bytes).
    Removing adxl362.o(.revsh_text), (4 bytes).
    Removing adxl362.o(i.ADXL362BurstRead), (68 bytes).
    Removing adxl362.o(i.ADXL362BurstWrite), (88 bytes).
    Removing adxl362.o(i.ADXL362FifoEntries), (16 bytes).
    Removing adxl362.o(i.ADXL362_ReInit), (148 bytes).
    Removing cc1101.o(.rev16_text), (4 bytes).
    Removing cc1101.o(.revsh_text), (4 bytes).
    Removing cc1101.o(i.CC1101CalcRSSI_dBm), (22 bytes).
    Removing cc1101.o(i.CC1101ClrRXBuff), (16 bytes).
    Removing cc1101.o(i.CC1101GetRXCnt), (14 bytes).
    Removing cc1101.o(i.CC1101ReadMultiReg), (84 bytes).
    Removing cc1101.o(i.CC1101ReadRSSI), (30 bytes).
    Removing cc1101.o(i.CC1101ReadStatus), (60 bytes).
    Removing cc1101.o(i.CC1101RecPacket), (100 bytes).
    Removing cc1101.o(i.CC1101RecvHandler), (164 bytes).
    Removing cc1101.o(i.CC1101Send3AxisHandler), (196 bytes).
    Removing cc1101.o(i.CC1101SendStepHandler), (336 bytes).
    Removing cc1101.o(i.CC1101SetIdle), (10 bytes).
    Removing rand_bytes_gen.o(.rev16_text), (4 bytes).
    Removing rand_bytes_gen.o(.revsh_text), (4 bytes).
    Removing main.o(.rev16_text), (4 bytes).
    Removing main.o(.revsh_text), (4 bytes).
    Removing main.o(i.DATAEEPROM_Read), (4 bytes).
    Removing main.o(i.Set_DeviceInfo), (88 bytes).
    Removing gpio.o(.rev16_text), (4 bytes).
    Removing gpio.o(.revsh_text), (4 bytes).
    Removing crc.o(.rev16_text), (4 bytes).
    Removing crc.o(.revsh_text), (4 bytes).
    Removing iwdg.o(.rev16_text), (4 bytes).
    Removing iwdg.o(.revsh_text), (4 bytes).
    Removing rtc.o(.rev16_text), (4 bytes).
    Removing rtc.o(.revsh_text), (4 bytes).
    Removing rtc.o(i.HAL_RTC_MspDeInit), (40 bytes).
    Removing spi.o(.rev16_text), (4 bytes).
    Removing spi.o(.revsh_text), (4 bytes).
    Removing spi.o(i.Activate_SPI), (10 bytes).
    Removing usart.o(.rev16_text), (4 bytes).
    Removing usart.o(.revsh_text), (4 bytes).
    Removing usart.o(i.Activate_USART1_RXIT), (40 bytes).
    Removing usart.o(i.PrintInfo), (44 bytes).
    Removing usart.o(i.fputc), (16 bytes).
    Removing stm32l0xx_it.o(.rev16_text), (4 bytes).
    Removing stm32l0xx_it.o(.revsh_text), (4 bytes).
    Removing stm32l0xx_hal_msp.o(.rev16_text), (4 bytes).
    Removing stm32l0xx_hal_msp.o(.revsh_text), (4 bytes).
    Removing stm32l0xx_ll_gpio.o(.rev16_text), (4 bytes).
    Removing stm32l0xx_ll_gpio.o(.revsh_text), (4 bytes).
    Removing stm32l0xx_ll_gpio.o(i.LL_GPIO_DeInit), (112 bytes).
    Removing stm32l0xx_ll_gpio.o(i.LL_GPIO_StructInit), (24 bytes).
    Removing stm32l0xx_ll_gpio.o(i.LL_IOP_GRP1_ForceReset), (16 bytes).
    Removing stm32l0xx_ll_gpio.o(i.LL_IOP_GRP1_ReleaseReset), (16 bytes).
    Removing stm32l0xx_hal_crc.o(.rev16_text), (4 bytes).
    Removing stm32l0xx_hal_crc.o(.revsh_text), (4 bytes).
    Removing stm32l0xx_hal_crc.o(i.HAL_CRC_Accumulate), (66 bytes).
    Removing stm32l0xx_hal_crc.o(i.HAL_CRC_GetState), (4 bytes).
    Removing stm32l0xx_hal_crc.o(i.HAL_CRC_MspDeInit), (2 bytes).
    Removing stm32l0xx_hal_crc.o(i.HAL_CRC_MspInit), (2 bytes).
    Removing stm32l0xx_hal_crc_ex.o(.rev16_text), (4 bytes).
    Removing stm32l0xx_hal_crc_ex.o(.revsh_text), (4 bytes).
    Removing stm32l0xx_hal_crc_ex.o(i.HAL_CRCEx_Input_Data_Reverse), (26 bytes).
    Removing stm32l0xx_hal_crc_ex.o(i.HAL_CRCEx_Output_Data_Reverse), (26 bytes).
    Removing stm32l0xx_hal.o(.rev16_text), (4 bytes).
    Removing stm32l0xx_hal.o(.revsh_text), (4 bytes).
    Removing stm32l0xx_hal.o(i.HAL_DBGMCU_DBG_DisableLowPowerConfig), (16 bytes).
    Removing stm32l0xx_hal.o(i.HAL_DBGMCU_DBG_EnableLowPowerConfig), (16 bytes).
    Removing stm32l0xx_hal.o(i.HAL_DBGMCU_DisableDBGSleepMode), (16 bytes).
    Removing stm32l0xx_hal.o(i.HAL_DBGMCU_DisableDBGStandbyMode), (16 bytes).
    Removing stm32l0xx_hal.o(i.HAL_DBGMCU_DisableDBGStopMode), (16 bytes).
    Removing stm32l0xx_hal.o(i.HAL_DBGMCU_EnableDBGSleepMode), (16 bytes).
    Removing stm32l0xx_hal.o(i.HAL_DBGMCU_EnableDBGStandbyMode), (16 bytes).
    Removing stm32l0xx_hal.o(i.HAL_DBGMCU_EnableDBGStopMode), (16 bytes).
    Removing stm32l0xx_hal.o(i.HAL_DeInit), (40 bytes).
    Removing stm32l0xx_hal.o(i.HAL_GetDEVID), (16 bytes).
    Removing stm32l0xx_hal.o(i.HAL_GetHalVersion), (8 bytes).
    Removing stm32l0xx_hal.o(i.HAL_GetREVID), (12 bytes).
    Removing stm32l0xx_hal.o(i.HAL_GetTickFreq), (12 bytes).
    Removing stm32l0xx_hal.o(i.HAL_GetTickPrio), (12 bytes).
    Removing stm32l0xx_hal.o(i.HAL_GetUIDw0), (12 bytes).
    Removing stm32l0xx_hal.o(i.HAL_GetUIDw1), (12 bytes).
    Removing stm32l0xx_hal.o(i.HAL_GetUIDw2), (12 bytes).
    Removing stm32l0xx_hal.o(i.HAL_MspDeInit), (2 bytes).
    Removing stm32l0xx_hal.o(i.HAL_MspInit), (2 bytes).
    Removing stm32l0xx_hal.o(i.HAL_SYSCFG_Disable_Lock_VREFINT), (16 bytes).
    Removing stm32l0xx_hal.o(i.HAL_SYSCFG_Enable_Lock_VREFINT), (16 bytes).
    Removing stm32l0xx_hal.o(i.HAL_SYSCFG_GetBootMode), (16 bytes).
    Removing stm32l0xx_hal.o(i.HAL_SYSCFG_VREFINT_OutputSelect), (24 bytes).
    Removing stm32l0xx_hal.o(i.HAL_SetTickFreq), (36 bytes).
    Removing stm32l0xx_hal_i2c.o(.rev16_text), (4 bytes).
    Removing stm32l0xx_hal_i2c.o(.revsh_text), (4 bytes).
    Removing stm32l0xx_hal_i2c.o(i.HAL_I2C_AbortCpltCallback), (2 bytes).
    Removing stm32l0xx_hal_i2c.o(i.HAL_I2C_AddrCallback), (2 bytes).
    Removing stm32l0xx_hal_i2c.o(i.HAL_I2C_DeInit), (52 bytes).
    Removing stm32l0xx_hal_i2c.o(i.HAL_I2C_DisableListen_IT), (50 bytes).
    Removing stm32l0xx_hal_i2c.o(i.HAL_I2C_ER_IRQHandler), (94 bytes).
    Removing stm32l0xx_hal_i2c.o(i.HAL_I2C_EV_IRQHandler), (16 bytes).
    Removing stm32l0xx_hal_i2c.o(i.HAL_I2C_EnableListen_IT), (40 bytes).
    Removing stm32l0xx_hal_i2c.o(i.HAL_I2C_ErrorCallback), (2 bytes).
    Removing stm32l0xx_hal_i2c.o(i.HAL_I2C_GetError), (4 bytes).
    Removing stm32l0xx_hal_i2c.o(i.HAL_I2C_GetMode), (6 bytes).
    Removing stm32l0xx_hal_i2c.o(i.HAL_I2C_GetState), (6 bytes).
    Removing stm32l0xx_hal_i2c.o(i.HAL_I2C_Init), (180 bytes).
    Removing stm32l0xx_hal_i2c.o(i.HAL_I2C_IsDeviceReady), (288 bytes).
    Removing stm32l0xx_hal_i2c.o(i.HAL_I2C_ListenCpltCallback), (2 bytes).
    Removing stm32l0xx_hal_i2c.o(i.HAL_I2C_MasterRxCpltCallback), (2 bytes).
    Removing stm32l0xx_hal_i2c.o(i.HAL_I2C_MasterTxCpltCallback), (2 bytes).
    Removing stm32l0xx_hal_i2c.o(i.HAL_I2C_Master_Abort_IT), (112 bytes).
    Removing stm32l0xx_hal_i2c.o(i.HAL_I2C_Master_Receive), (272 bytes).
    Removing stm32l0xx_hal_i2c.o(i.HAL_I2C_Master_Receive_DMA), (280 bytes).
    Removing stm32l0xx_hal_i2c.o(i.HAL_I2C_Master_Receive_IT), (128 bytes).
    Removing stm32l0xx_hal_i2c.o(i.HAL_I2C_Master_Seq_Receive_DMA), (316 bytes).
    Removing stm32l0xx_hal_i2c.o(i.HAL_I2C_Master_Seq_Receive_IT), (156 bytes).
    Removing stm32l0xx_hal_i2c.o(i.HAL_I2C_Master_Seq_Transmit_DMA), (312 bytes).
    Removing stm32l0xx_hal_i2c.o(i.HAL_I2C_Master_Seq_Transmit_IT), (156 bytes).
    Removing stm32l0xx_hal_i2c.o(i.HAL_I2C_Master_Transmit), (272 bytes).
    Removing stm32l0xx_hal_i2c.o(i.HAL_I2C_Master_Transmit_DMA), (284 bytes).
    Removing stm32l0xx_hal_i2c.o(i.HAL_I2C_Master_Transmit_IT), (128 bytes).
    Removing stm32l0xx_hal_i2c.o(i.HAL_I2C_MemRxCpltCallback), (2 bytes).
    Removing stm32l0xx_hal_i2c.o(i.HAL_I2C_MemTxCpltCallback), (2 bytes).
    Removing stm32l0xx_hal_i2c.o(i.HAL_I2C_Mem_Read), (340 bytes).
    Removing stm32l0xx_hal_i2c.o(i.HAL_I2C_Mem_Read_DMA), (288 bytes).
    Removing stm32l0xx_hal_i2c.o(i.HAL_I2C_Mem_Read_IT), (188 bytes).
    Removing stm32l0xx_hal_i2c.o(i.HAL_I2C_Mem_Write), (332 bytes).
    Removing stm32l0xx_hal_i2c.o(i.HAL_I2C_Mem_Write_DMA), (280 bytes).
    Removing stm32l0xx_hal_i2c.o(i.HAL_I2C_Mem_Write_IT), (180 bytes).
    Removing stm32l0xx_hal_i2c.o(i.HAL_I2C_MspDeInit), (2 bytes).
    Removing stm32l0xx_hal_i2c.o(i.HAL_I2C_MspInit), (2 bytes).
    Removing stm32l0xx_hal_i2c.o(i.HAL_I2C_SlaveRxCpltCallback), (2 bytes).
    Removing stm32l0xx_hal_i2c.o(i.HAL_I2C_SlaveTxCpltCallback), (2 bytes).
    Removing stm32l0xx_hal_i2c.o(i.HAL_I2C_Slave_Receive), (276 bytes).
    Removing stm32l0xx_hal_i2c.o(i.HAL_I2C_Slave_Receive_DMA), (200 bytes).
    Removing stm32l0xx_hal_i2c.o(i.HAL_I2C_Slave_Receive_IT), (88 bytes).
    Removing stm32l0xx_hal_i2c.o(i.HAL_I2C_Slave_Seq_Receive_DMA), (364 bytes).
    Removing stm32l0xx_hal_i2c.o(i.HAL_I2C_Slave_Seq_Receive_IT), (204 bytes).
    Removing stm32l0xx_hal_i2c.o(i.HAL_I2C_Slave_Seq_Transmit_DMA), (368 bytes).
    Removing stm32l0xx_hal_i2c.o(i.HAL_I2C_Slave_Seq_Transmit_IT), (208 bytes).
    Removing stm32l0xx_hal_i2c.o(i.HAL_I2C_Slave_Transmit), (294 bytes).
    Removing stm32l0xx_hal_i2c.o(i.HAL_I2C_Slave_Transmit_DMA), (196 bytes).
    Removing stm32l0xx_hal_i2c.o(i.HAL_I2C_Slave_Transmit_IT), (88 bytes).
    Removing stm32l0xx_hal_i2c.o(i.I2C_ConvertOtherXferOptions), (28 bytes).
    Removing stm32l0xx_hal_i2c.o(i.I2C_DMAAbort), (28 bytes).
    Removing stm32l0xx_hal_i2c.o(i.I2C_DMAError), (24 bytes).
    Removing stm32l0xx_hal_i2c.o(i.I2C_DMAMasterReceiveCplt), (84 bytes).
    Removing stm32l0xx_hal_i2c.o(i.I2C_DMAMasterTransmitCplt), (84 bytes).
    Removing stm32l0xx_hal_i2c.o(i.I2C_DMASlaveReceiveCplt), (42 bytes).
    Removing stm32l0xx_hal_i2c.o(i.I2C_DMASlaveTransmitCplt), (36 bytes).
    Removing stm32l0xx_hal_i2c.o(i.I2C_Disable_IRQ), (82 bytes).
    Removing stm32l0xx_hal_i2c.o(i.I2C_Enable_IRQ), (92 bytes).
    Removing stm32l0xx_hal_i2c.o(i.I2C_Flush_TXDR), (34 bytes).
    Removing stm32l0xx_hal_i2c.o(i.I2C_ITAddrCplt), (124 bytes).
    Removing stm32l0xx_hal_i2c.o(i.I2C_ITError), (236 bytes).
    Removing stm32l0xx_hal_i2c.o(i.I2C_ITListenCplt), (104 bytes).
    Removing stm32l0xx_hal_i2c.o(i.I2C_ITMasterCplt), (216 bytes).
    Removing stm32l0xx_hal_i2c.o(i.I2C_ITMasterSeqCplt), (70 bytes).
    Removing stm32l0xx_hal_i2c.o(i.I2C_ITSlaveCplt), (316 bytes).
    Removing stm32l0xx_hal_i2c.o(i.I2C_ITSlaveSeqCplt), (106 bytes).
    Removing stm32l0xx_hal_i2c.o(i.I2C_IsAcknowledgeFailed), (136 bytes).
    Removing stm32l0xx_hal_i2c.o(i.I2C_Master_ISR_DMA), (268 bytes).
    Removing stm32l0xx_hal_i2c.o(i.I2C_Master_ISR_IT), (304 bytes).
    Removing stm32l0xx_hal_i2c.o(i.I2C_RequestMemoryRead), (96 bytes).
    Removing stm32l0xx_hal_i2c.o(i.I2C_RequestMemoryWrite), (96 bytes).
    Removing stm32l0xx_hal_i2c.o(i.I2C_Slave_ISR_DMA), (274 bytes).
    Removing stm32l0xx_hal_i2c.o(i.I2C_Slave_ISR_IT), (304 bytes).
    Removing stm32l0xx_hal_i2c.o(i.I2C_TransferConfig), (40 bytes).
    Removing stm32l0xx_hal_i2c.o(i.I2C_TreatErrorCallback), (38 bytes).
    Removing stm32l0xx_hal_i2c.o(i.I2C_WaitOnFlagUntilTimeout), (78 bytes).
    Removing stm32l0xx_hal_i2c.o(i.I2C_WaitOnRXNEFlagUntilTimeout), (128 bytes).
    Removing stm32l0xx_hal_i2c.o(i.I2C_WaitOnSTOPFlagUntilTimeout), (76 bytes).
    Removing stm32l0xx_hal_i2c.o(i.I2C_WaitOnTXISFlagUntilTimeout), (80 bytes).
    Removing stm32l0xx_hal_i2c_ex.o(.rev16_text), (4 bytes).
    Removing stm32l0xx_hal_i2c_ex.o(.revsh_text), (4 bytes).
    Removing stm32l0xx_hal_i2c_ex.o(i.HAL_I2CEx_ConfigAnalogFilter), (74 bytes).
    Removing stm32l0xx_hal_i2c_ex.o(i.HAL_I2CEx_ConfigDigitalFilter), (72 bytes).
    Removing stm32l0xx_hal_i2c_ex.o(i.HAL_I2CEx_DisableFastModePlus), (28 bytes).
    Removing stm32l0xx_hal_i2c_ex.o(i.HAL_I2CEx_DisableWakeUp), (66 bytes).
    Removing stm32l0xx_hal_i2c_ex.o(i.HAL_I2CEx_EnableFastModePlus), (28 bytes).
    Removing stm32l0xx_hal_i2c_ex.o(i.HAL_I2CEx_EnableWakeUp), (66 bytes).
    Removing stm32l0xx_hal_rcc.o(.rev16_text), (4 bytes).
    Removing stm32l0xx_hal_rcc.o(.revsh_text), (4 bytes).
    Removing stm32l0xx_hal_rcc.o(i.HAL_RCC_CSSCallback), (2 bytes).
    Removing stm32l0xx_hal_rcc.o(i.HAL_RCC_DeInit), (212 bytes).
    Removing stm32l0xx_hal_rcc.o(i.HAL_RCC_EnableCSS), (20 bytes).
    Removing stm32l0xx_hal_rcc.o(i.HAL_RCC_GetClockConfig), (64 bytes).
    Removing stm32l0xx_hal_rcc.o(i.HAL_RCC_GetHCLKFreq), (12 bytes).
    Removing stm32l0xx_hal_rcc.o(i.HAL_RCC_GetOscConfig), (184 bytes).
    Removing stm32l0xx_hal_rcc.o(i.HAL_RCC_GetPCLK1Freq), (32 bytes).
    Removing stm32l0xx_hal_rcc.o(i.HAL_RCC_GetPCLK2Freq), (32 bytes).
    Removing stm32l0xx_hal_rcc.o(i.HAL_RCC_MCOConfig), (132 bytes).
    Removing stm32l0xx_hal_rcc.o(i.HAL_RCC_NMI_IRQHandler), (24 bytes).
    Removing stm32l0xx_hal_rcc_ex.o(.rev16_text), (4 bytes).
    Removing stm32l0xx_hal_rcc_ex.o(.revsh_text), (4 bytes).
    Removing stm32l0xx_hal_rcc_ex.o(i.HAL_RCCEx_DisableLSECSS), (32 bytes).
    Removing stm32l0xx_hal_rcc_ex.o(i.HAL_RCCEx_EnableLSECSS), (20 bytes).
    Removing stm32l0xx_hal_rcc_ex.o(i.HAL_RCCEx_EnableLSECSS_IT), (52 bytes).
    Removing stm32l0xx_hal_rcc_ex.o(i.HAL_RCCEx_GetPeriphCLKConfig), (92 bytes).
    Removing stm32l0xx_hal_rcc_ex.o(i.HAL_RCCEx_GetPeriphCLKFreq), (324 bytes).
    Removing stm32l0xx_hal_rcc_ex.o(i.HAL_RCCEx_LSECSS_Callback), (2 bytes).
    Removing stm32l0xx_hal_rcc_ex.o(i.HAL_RCCEx_LSECSS_IRQHandler), (24 bytes).
    Removing stm32l0xx_hal_flash_ramfunc.o(.rev16_text), (4 bytes).
    Removing stm32l0xx_hal_flash_ramfunc.o(.revsh_text), (4 bytes).
    Removing stm32l0xx_hal_flash_ramfunc.o(i.FLASHRAM_SetErrorCode), (144 bytes).
    Removing stm32l0xx_hal_flash_ramfunc.o(i.FLASHRAM_WaitForLastOperation), (96 bytes).
    Removing stm32l0xx_hal_flash_ramfunc.o(i.HAL_FLASHEx_DisableRunPowerDown), (36 bytes).
    Removing stm32l0xx_hal_flash_ramfunc.o(i.HAL_FLASHEx_EnableRunPowerDown), (36 bytes).
    Removing stm32l0xx_hal_flash_ramfunc.o(i.HAL_FLASHEx_GetError), (16 bytes).
    Removing stm32l0xx_hal_flash_ramfunc.o(i.HAL_FLASHEx_HalfPageProgram), (84 bytes).
    Removing stm32l0xx_hal_flash.o(.rev16_text), (4 bytes).
    Removing stm32l0xx_hal_flash.o(.revsh_text), (4 bytes).
    Removing stm32l0xx_hal_flash.o(i.HAL_FLASH_EndOfOperationCallback), (2 bytes).
    Removing stm32l0xx_hal_flash.o(i.HAL_FLASH_GetError), (12 bytes).
    Removing stm32l0xx_hal_flash.o(i.HAL_FLASH_IRQHandler), (220 bytes).
    Removing stm32l0xx_hal_flash.o(i.HAL_FLASH_Lock), (28 bytes).
    Removing stm32l0xx_hal_flash.o(i.HAL_FLASH_OB_Launch), (32 bytes).
    Removing stm32l0xx_hal_flash.o(i.HAL_FLASH_OB_Lock), (20 bytes).
    Removing stm32l0xx_hal_flash.o(i.HAL_FLASH_OB_Unlock), (68 bytes).
    Removing stm32l0xx_hal_flash.o(i.HAL_FLASH_OperationErrorCallback), (2 bytes).
    Removing stm32l0xx_hal_flash.o(i.HAL_FLASH_Program), (60 bytes).
    Removing stm32l0xx_hal_flash.o(i.HAL_FLASH_Program_IT), (60 bytes).
    Removing stm32l0xx_hal_flash.o(i.HAL_FLASH_Unlock), (92 bytes).
    Removing stm32l0xx_hal_flash_ex.o(.rev16_text), (4 bytes).
    Removing stm32l0xx_hal_flash_ex.o(.revsh_text), (4 bytes).
    Removing stm32l0xx_hal_flash_ex.o(i.FLASH_OB_ProtectedSectorsConfig), (80 bytes).
    Removing stm32l0xx_hal_flash_ex.o(i.FLASH_PageErase), (44 bytes).
    Removing stm32l0xx_hal_flash_ex.o(i.HAL_FLASHEx_AdvOBGetConfig), (24 bytes).
    Removing stm32l0xx_hal_flash_ex.o(i.HAL_FLASHEx_AdvOBProgram), (24 bytes).
    Removing stm32l0xx_hal_flash_ex.o(i.HAL_FLASHEx_Erase), (120 bytes).
    Removing stm32l0xx_hal_flash_ex.o(i.HAL_FLASHEx_Erase_IT), (92 bytes).
    Removing stm32l0xx_hal_flash_ex.o(i.HAL_FLASHEx_OBGetConfig), (56 bytes).
    Removing stm32l0xx_hal_flash_ex.o(i.HAL_FLASHEx_OBProgram), (292 bytes).
    Removing stm32l0xx_hal_flash_ex.o(i.HAL_FLASHEx_OB_DeSelectPCROP), (52 bytes).
    Removing stm32l0xx_hal_flash_ex.o(i.HAL_FLASHEx_OB_SelectPCROP), (56 bytes).
    Removing stm32l0xx_hal_gpio.o(.rev16_text), (4 bytes).
    Removing stm32l0xx_hal_gpio.o(.revsh_text), (4 bytes).
    Removing stm32l0xx_hal_gpio.o(i.HAL_GPIO_DeInit), (228 bytes).
    Removing stm32l0xx_hal_gpio.o(i.HAL_GPIO_EXTI_Callback), (2 bytes).
    Removing stm32l0xx_hal_gpio.o(i.HAL_GPIO_EXTI_IRQHandler), (24 bytes).
    Removing stm32l0xx_hal_gpio.o(i.HAL_GPIO_Init), (432 bytes).
    Removing stm32l0xx_hal_gpio.o(i.HAL_GPIO_LockPin), (36 bytes).
    Removing stm32l0xx_hal_dma.o(.rev16_text), (4 bytes).
    Removing stm32l0xx_hal_dma.o(.revsh_text), (4 bytes).
    Removing stm32l0xx_hal_dma.o(i.DMA_SetConfig), (44 bytes).
    Removing stm32l0xx_hal_dma.o(i.HAL_DMA_Abort), (68 bytes).
    Removing stm32l0xx_hal_dma.o(i.HAL_DMA_Abort_IT), (76 bytes).
    Removing stm32l0xx_hal_dma.o(i.HAL_DMA_DeInit), (104 bytes).
    Removing stm32l0xx_hal_dma.o(i.HAL_DMA_GetError), (4 bytes).
    Removing stm32l0xx_hal_dma.o(i.HAL_DMA_GetState), (6 bytes).
    Removing stm32l0xx_hal_dma.o(i.HAL_DMA_IRQHandler), (168 bytes).
    Removing stm32l0xx_hal_dma.o(i.HAL_DMA_Init), (144 bytes).
    Removing stm32l0xx_hal_dma.o(i.HAL_DMA_PollForTransfer), (190 bytes).
    Removing stm32l0xx_hal_dma.o(i.HAL_DMA_RegisterCallback), (72 bytes).
    Removing stm32l0xx_hal_dma.o(i.HAL_DMA_Start), (74 bytes).
    Removing stm32l0xx_hal_dma.o(i.HAL_DMA_Start_IT), (104 bytes).
    Removing stm32l0xx_hal_dma.o(i.HAL_DMA_UnRegisterCallback), (78 bytes).
    Removing stm32l0xx_hal_pwr.o(.rev16_text), (4 bytes).
    Removing stm32l0xx_hal_pwr.o(.revsh_text), (4 bytes).
    Removing stm32l0xx_hal_pwr.o(i.HAL_PWR_ConfigPVD), (104 bytes).
    Removing stm32l0xx_hal_pwr.o(i.HAL_PWR_DeInit), (24 bytes).
    Removing stm32l0xx_hal_pwr.o(i.HAL_PWR_DisableBkUpAccess), (16 bytes).
    Removing stm32l0xx_hal_pwr.o(i.HAL_PWR_DisablePVD), (16 bytes).
    Removing stm32l0xx_hal_pwr.o(i.HAL_PWR_DisableSEVOnPend), (16 bytes).
    Removing stm32l0xx_hal_pwr.o(i.HAL_PWR_DisableSleepOnExit), (16 bytes).
    Removing stm32l0xx_hal_pwr.o(i.HAL_PWR_DisableWakeUpPin), (16 bytes).
    Removing stm32l0xx_hal_pwr.o(i.HAL_PWR_EnablePVD), (16 bytes).
    Removing stm32l0xx_hal_pwr.o(i.HAL_PWR_EnableSEVOnPend), (16 bytes).
    Removing stm32l0xx_hal_pwr.o(i.HAL_PWR_EnableSleepOnExit), (16 bytes).
    Removing stm32l0xx_hal_pwr.o(i.HAL_PWR_EnableWakeUpPin), (16 bytes).
    Removing stm32l0xx_hal_pwr.o(i.HAL_PWR_EnterSLEEPMode), (96 bytes).
    Removing stm32l0xx_hal_pwr.o(i.HAL_PWR_EnterSTANDBYMode), (32 bytes).
    Removing stm32l0xx_hal_pwr.o(i.HAL_PWR_PVDCallback), (2 bytes).
    Removing stm32l0xx_hal_pwr.o(i.HAL_PWR_PVD_IRQHandler), (28 bytes).
    Removing stm32l0xx_hal_pwr_ex.o(.rev16_text), (4 bytes).
    Removing stm32l0xx_hal_pwr_ex.o(.revsh_text), (4 bytes).
    Removing stm32l0xx_hal_pwr_ex.o(i.HAL_PWREx_DisableFastWakeUp), (16 bytes).
    Removing stm32l0xx_hal_pwr_ex.o(i.HAL_PWREx_DisableLowPowerRunMode), (76 bytes).
    Removing stm32l0xx_hal_pwr_ex.o(i.HAL_PWREx_DisableUltraLowPower), (16 bytes).
    Removing stm32l0xx_hal_pwr_ex.o(i.HAL_PWREx_EnableLowPowerRunMode), (24 bytes).
    Removing stm32l0xx_hal_pwr_ex.o(i.HAL_PWREx_GetVoltageRange), (16 bytes).
    Removing stm32l0xx_hal_cortex.o(.rev16_text), (4 bytes).
    Removing stm32l0xx_hal_cortex.o(.revsh_text), (4 bytes).
    Removing stm32l0xx_hal_cortex.o(i.HAL_MPU_ConfigRegion), (80 bytes).
    Removing stm32l0xx_hal_cortex.o(i.HAL_MPU_Disable), (16 bytes).
    Removing stm32l0xx_hal_cortex.o(i.HAL_MPU_Enable), (24 bytes).
    Removing stm32l0xx_hal_cortex.o(i.HAL_NVIC_ClearPendingIRQ), (24 bytes).
    Removing stm32l0xx_hal_cortex.o(i.HAL_NVIC_DisableIRQ), (32 bytes).
    Removing stm32l0xx_hal_cortex.o(i.HAL_NVIC_GetPendingIRQ), (32 bytes).
    Removing stm32l0xx_hal_cortex.o(i.HAL_NVIC_GetPriority), (52 bytes).
    Removing stm32l0xx_hal_cortex.o(i.HAL_NVIC_SetPendingIRQ), (24 bytes).
    Removing stm32l0xx_hal_cortex.o(i.HAL_NVIC_SystemReset), (28 bytes).
    Removing stm32l0xx_hal_cortex.o(i.HAL_SYSTICK_CLKSourceConfig), (24 bytes).
    Removing stm32l0xx_hal_cortex.o(i.HAL_SYSTICK_Callback), (2 bytes).
    Removing stm32l0xx_hal_cortex.o(i.HAL_SYSTICK_IRQHandler), (8 bytes).
    Removing stm32l0xx_hal_exti.o(.rev16_text), (4 bytes).
    Removing stm32l0xx_hal_exti.o(.revsh_text), (4 bytes).
    Removing stm32l0xx_hal_exti.o(i.HAL_EXTI_ClearConfigLine), (100 bytes).
    Removing stm32l0xx_hal_exti.o(i.HAL_EXTI_ClearPending), (20 bytes).
    Removing stm32l0xx_hal_exti.o(i.HAL_EXTI_GenerateSWI), (20 bytes).
    Removing stm32l0xx_hal_exti.o(i.HAL_EXTI_GetConfigLine), (136 bytes).
    Removing stm32l0xx_hal_exti.o(i.HAL_EXTI_GetHandle), (14 bytes).
    Removing stm32l0xx_hal_exti.o(i.HAL_EXTI_GetPending), (24 bytes).
    Removing stm32l0xx_hal_exti.o(i.HAL_EXTI_IRQHandler), (36 bytes).
    Removing stm32l0xx_hal_exti.o(i.HAL_EXTI_RegisterCallback), (16 bytes).
    Removing stm32l0xx_hal_exti.o(i.HAL_EXTI_SetConfigLine), (148 bytes).
    Removing stm32l0xx_ll_rcc.o(.rev16_text), (4 bytes).
    Removing stm32l0xx_ll_rcc.o(.revsh_text), (4 bytes).
    Removing stm32l0xx_ll_rcc.o(i.LL_RCC_DeInit), (156 bytes).
    Removing stm32l0xx_ll_rcc.o(i.LL_RCC_GetI2CClockFreq), (100 bytes).
    Removing stm32l0xx_ll_rcc.o(i.LL_RCC_GetLPTIMClockFreq), (120 bytes).
    Removing stm32l0xx_ll_rcc.o(i.LL_RCC_GetLPUARTClockFreq), (100 bytes).
    Removing stm32l0xx_ll_rcc.o(i.LL_RCC_GetSystemClocksFreq), (32 bytes).
    Removing stm32l0xx_ll_utils.o(.rev16_text), (4 bytes).
    Removing stm32l0xx_ll_utils.o(.revsh_text), (4 bytes).
    Removing stm32l0xx_ll_utils.o(i.LL_Init1msTick), (32 bytes).
    Removing stm32l0xx_ll_utils.o(i.LL_PLL_ConfigSystemClock_HSE), (100 bytes).
    Removing stm32l0xx_ll_utils.o(i.LL_PLL_ConfigSystemClock_HSI), (80 bytes).
    Removing stm32l0xx_ll_utils.o(i.LL_RCC_PLL_ConfigDomain_SYS), (28 bytes).
    Removing stm32l0xx_ll_utils.o(i.LL_SetFlashLatency), (128 bytes).
    Removing stm32l0xx_ll_utils.o(i.LL_SetSystemCoreClock), (12 bytes).
    Removing stm32l0xx_ll_utils.o(i.LL_mDelay), (32 bytes).
    Removing stm32l0xx_ll_utils.o(i.UTILS_EnablePLLAndSwitchSystem), (148 bytes).
    Removing stm32l0xx_ll_utils.o(i.UTILS_GetPLLOutputFrequency), (28 bytes).
    Removing stm32l0xx_ll_utils.o(i.UTILS_PLL_IsBusy), (20 bytes).
    Removing stm32l0xx_ll_exti.o(.rev16_text), (4 bytes).
    Removing stm32l0xx_ll_exti.o(.revsh_text), (4 bytes).
    Removing stm32l0xx_ll_exti.o(i.LL_EXTI_DeInit), (36 bytes).
    Removing stm32l0xx_ll_exti.o(i.LL_EXTI_StructInit), (14 bytes).
    Removing stm32l0xx_hal_rtc.o(.rev16_text), (4 bytes).
    Removing stm32l0xx_hal_rtc.o(.revsh_text), (4 bytes).
    Removing stm32l0xx_hal_rtc.o(i.HAL_RTC_AlarmAEventCallback), (2 bytes).
    Removing stm32l0xx_hal_rtc.o(i.HAL_RTC_AlarmIRQHandler), (96 bytes).
    Removing stm32l0xx_hal_rtc.o(i.HAL_RTC_DST_Add1Hour), (32 bytes).
    Removing stm32l0xx_hal_rtc.o(i.HAL_RTC_DST_ClearStoreOperation), (32 bytes).
    Removing stm32l0xx_hal_rtc.o(i.HAL_RTC_DST_ReadStoreOperation), (12 bytes).
    Removing stm32l0xx_hal_rtc.o(i.HAL_RTC_DST_SetStoreOperation), (32 bytes).
    Removing stm32l0xx_hal_rtc.o(i.HAL_RTC_DST_Sub1Hour), (32 bytes).
    Removing stm32l0xx_hal_rtc.o(i.HAL_RTC_DeInit), (212 bytes).
    Removing stm32l0xx_hal_rtc.o(i.HAL_RTC_DeactivateAlarm), (184 bytes).
    Removing stm32l0xx_hal_rtc.o(i.HAL_RTC_GetAlarm), (140 bytes).
    Removing stm32l0xx_hal_rtc.o(i.HAL_RTC_GetDate), (68 bytes).
    Removing stm32l0xx_hal_rtc.o(i.HAL_RTC_GetState), (6 bytes).
    Removing stm32l0xx_hal_rtc.o(i.HAL_RTC_GetTime), (92 bytes).
    Removing stm32l0xx_hal_rtc.o(i.HAL_RTC_MspDeInit), (2 bytes).
    Removing stm32l0xx_hal_rtc.o(i.HAL_RTC_MspInit), (2 bytes).
    Removing stm32l0xx_hal_rtc.o(i.HAL_RTC_PollForAlarmAEvent), (72 bytes).
    Removing stm32l0xx_hal_rtc.o(i.HAL_RTC_SetAlarm), (348 bytes).
    Removing stm32l0xx_hal_rtc.o(i.HAL_RTC_SetAlarm_IT), (400 bytes).
    Removing stm32l0xx_hal_rtc.o(i.HAL_RTC_SetDate), (196 bytes).
    Removing stm32l0xx_hal_rtc.o(i.HAL_RTC_SetTime), (232 bytes).
    Removing stm32l0xx_hal_rtc.o(i.RTC_Bcd2ToByte), (16 bytes).
    Removing stm32l0xx_hal_rtc.o(i.RTC_ByteToBcd2), (24 bytes).
    Removing stm32l0xx_hal_rtc_ex.o(.rev16_text), (4 bytes).
    Removing stm32l0xx_hal_rtc_ex.o(.revsh_text), (4 bytes).
    Removing stm32l0xx_hal_rtc_ex.o(i.HAL_RTCEx_AlarmBEventCallback), (2 bytes).
    Removing stm32l0xx_hal_rtc_ex.o(i.HAL_RTCEx_BKUPRead), (12 bytes).
    Removing stm32l0xx_hal_rtc_ex.o(i.HAL_RTCEx_BKUPWrite), (12 bytes).
    Removing stm32l0xx_hal_rtc_ex.o(i.HAL_RTCEx_DeactivateCalibrationOutPut), (60 bytes).
    Removing stm32l0xx_hal_rtc_ex.o(i.HAL_RTCEx_DeactivateRefClock), (98 bytes).
    Removing stm32l0xx_hal_rtc_ex.o(i.HAL_RTCEx_DeactivateTamper), (76 bytes).
    Removing stm32l0xx_hal_rtc_ex.o(i.HAL_RTCEx_DeactivateTimeStamp), (76 bytes).
    Removing stm32l0xx_hal_rtc_ex.o(i.HAL_RTCEx_DeactivateWakeUpTimer), (122 bytes).
    Removing stm32l0xx_hal_rtc_ex.o(i.HAL_RTCEx_DisableBypassShadow), (60 bytes).
    Removing stm32l0xx_hal_rtc_ex.o(i.HAL_RTCEx_EnableBypassShadow), (60 bytes).
    Removing stm32l0xx_hal_rtc_ex.o(i.HAL_RTCEx_GetTimeStamp), (160 bytes).
    Removing stm32l0xx_hal_rtc_ex.o(i.HAL_RTCEx_GetWakeUpTimer), (8 bytes).
    Removing stm32l0xx_hal_rtc_ex.o(i.HAL_RTCEx_PollForAlarmBEvent), (76 bytes).
    Removing stm32l0xx_hal_rtc_ex.o(i.HAL_RTCEx_PollForTamper1Event), (76 bytes).
    Removing stm32l0xx_hal_rtc_ex.o(i.HAL_RTCEx_PollForTamper2Event), (76 bytes).
    Removing stm32l0xx_hal_rtc_ex.o(i.HAL_RTCEx_PollForTimeStampEvent), (88 bytes).
    Removing stm32l0xx_hal_rtc_ex.o(i.HAL_RTCEx_PollForWakeUpTimerEvent), (76 bytes).
    Removing stm32l0xx_hal_rtc_ex.o(i.HAL_RTCEx_SetCalibrationOutPut), (78 bytes).
    Removing stm32l0xx_hal_rtc_ex.o(i.HAL_RTCEx_SetRefClock), (98 bytes).
    Removing stm32l0xx_hal_rtc_ex.o(i.HAL_RTCEx_SetSmoothCalib), (126 bytes).
    Removing stm32l0xx_hal_rtc_ex.o(i.HAL_RTCEx_SetSynchroShift), (152 bytes).
    Removing stm32l0xx_hal_rtc_ex.o(i.HAL_RTCEx_SetTamper), (180 bytes).
    Removing stm32l0xx_hal_rtc_ex.o(i.HAL_RTCEx_SetTamper_IT), (208 bytes).
    Removing stm32l0xx_hal_rtc_ex.o(i.HAL_RTCEx_SetTimeStamp), (108 bytes).
    Removing stm32l0xx_hal_rtc_ex.o(i.HAL_RTCEx_SetTimeStamp_IT), (140 bytes).
    Removing stm32l0xx_hal_rtc_ex.o(i.HAL_RTCEx_SetWakeUpTimer), (196 bytes).
    Removing stm32l0xx_hal_rtc_ex.o(i.HAL_RTCEx_Tamper1EventCallback), (2 bytes).
    Removing stm32l0xx_hal_rtc_ex.o(i.HAL_RTCEx_Tamper2EventCallback), (2 bytes).
    Removing stm32l0xx_hal_rtc_ex.o(i.HAL_RTCEx_TamperTimeStampIRQHandler), (148 bytes).
    Removing stm32l0xx_hal_rtc_ex.o(i.HAL_RTCEx_TimeStampEventCallback), (2 bytes).
    Removing stm32l0xx_hal_rtc_ex.o(i.HAL_RTCEx_WakeUpTimerEventCallback), (2 bytes).
    Removing stm32l0xx_ll_spi.o(.rev16_text), (4 bytes).
    Removing stm32l0xx_ll_spi.o(.revsh_text), (4 bytes).
    Removing stm32l0xx_ll_spi.o(i.LL_I2S_ConfigPrescaler), (16 bytes).
    Removing stm32l0xx_ll_spi.o(i.LL_I2S_DeInit), (8 bytes).
    Removing stm32l0xx_ll_spi.o(i.LL_I2S_Init), (160 bytes).
    Removing stm32l0xx_ll_spi.o(i.LL_I2S_StructInit), (18 bytes).
    Removing stm32l0xx_ll_spi.o(i.LL_SPI_StructInit), (26 bytes).
    Removing stm32l0xx_ll_dma.o(.rev16_text), (4 bytes).
    Removing stm32l0xx_ll_dma.o(.revsh_text), (4 bytes).
    Removing stm32l0xx_ll_dma.o(i.LL_DMA_DeInit), (220 bytes).
    Removing stm32l0xx_ll_dma.o(i.LL_DMA_Init), (100 bytes).
    Removing stm32l0xx_ll_dma.o(i.LL_DMA_SetPeriphRequest), (24 bytes).
    Removing stm32l0xx_ll_dma.o(i.LL_DMA_StructInit), (26 bytes).
    Removing stm32l0xx_ll_dma.o(.constdata), (7 bytes).
    Removing stm32l0xx_hal_tim.o(.rev16_text), (4 bytes).
    Removing stm32l0xx_hal_tim.o(.revsh_text), (4 bytes).
    Removing stm32l0xx_hal_tim_ex.o(.rev16_text), (4 bytes).
    Removing stm32l0xx_hal_tim_ex.o(.revsh_text), (4 bytes).
    Removing stm32l0xx_ll_usart.o(.rev16_text), (4 bytes).
    Removing stm32l0xx_ll_usart.o(.revsh_text), (4 bytes).
    Removing stm32l0xx_ll_usart.o(i.LL_USART_ClockInit), (62 bytes).
    Removing stm32l0xx_ll_usart.o(i.LL_USART_ClockStructInit), (12 bytes).
    Removing stm32l0xx_ll_usart.o(i.LL_USART_StructInit), (24 bytes).
    Removing system_stm32l0xx.o(.rev16_text), (4 bytes).
    Removing system_stm32l0xx.o(.revsh_text), (4 bytes).
    Removing system_stm32l0xx.o(i.SystemCoreClockUpdate), (156 bytes).
    Removing crypto.o(.rev16_text), (4 bytes).
    Removing crypto.o(.revsh_text), (4 bytes).
    Removing crypto.o(i.AES_CBC_Decrypt_Append), (1056 bytes).
    Removing crypto.o(i.AES_CBC_Decrypt_Finish), (28 bytes).
    Removing crypto.o(i.AES_CBC_Decrypt_Init), (10 bytes).
    Removing crypto.o(i.AES_CBC_Encrypt_Append), (748 bytes).
    Removing crypto.o(i.AES_CBC_Encrypt_Finish), (28 bytes).
    Removing crypto.o(i.AES_CBC_Encrypt_Init), (10 bytes).
    Removing crypto.o(i.AES_CCM_Decrypt_Append), (712 bytes).
    Removing crypto.o(i.AES_CCM_Decrypt_Finish), (328 bytes).
    Removing crypto.o(i.AES_CCM_Decrypt_Init), (8 bytes).
    Removing crypto.o(i.AES_CCM_Encrypt_Append), (1826 bytes).
    Removing crypto.o(i.AES_CCM_Encrypt_Finish), (220 bytes).
    Removing crypto.o(i.AES_CCM_Encrypt_Init), (540 bytes).
    Removing crypto.o(i.AES_CCM_Header_Append), (764 bytes).
    Removing crypto.o(i.AES_CFB_Decrypt_Append), (624 bytes).
    Removing crypto.o(i.AES_CFB_Decrypt_Finish), (28 bytes).
    Removing crypto.o(i.AES_CFB_Decrypt_Init), (8 bytes).
    Removing crypto.o(i.AES_CFB_Encrypt_Append), (608 bytes).
    Removing crypto.o(i.AES_CFB_Encrypt_Finish), (28 bytes).
    Removing crypto.o(i.AES_CFB_Encrypt_Init), (140 bytes).
    Removing crypto.o(i.AES_CMAC_Decrypt_Append), (8 bytes).
    Removing crypto.o(i.AES_CMAC_Decrypt_Finish), (256 bytes).
    Removing crypto.o(i.AES_CMAC_Decrypt_Init), (44 bytes).
    Removing crypto.o(i.AES_CMAC_Encrypt_Append), (1554 bytes).
    Removing crypto.o(i.AES_CMAC_Encrypt_Finish), (164 bytes).
    Removing crypto.o(i.AES_CMAC_Encrypt_Init), (44 bytes).
    Removing crypto.o(i.AES_CTR_Decrypt_Append), (12 bytes).
    Removing crypto.o(i.AES_CTR_Decrypt_Finish), (28 bytes).
    Removing crypto.o(i.AES_CTR_Decrypt_Init), (10 bytes).
    Removing crypto.o(i.AES_CTR_Encrypt_Append), (1040 bytes).
    Removing crypto.o(i.AES_CTR_Encrypt_Finish), (28 bytes).
    Removing crypto.o(i.AES_CTR_Encrypt_Init), (10 bytes).
    Removing crypto.o(i.AES_ECB_Decrypt_Append), (360 bytes).
    Removing crypto.o(i.AES_ECB_Decrypt_Finish), (28 bytes).
    Removing crypto.o(i.AES_ECB_Decrypt_Init), (10 bytes).
    Removing crypto.o(i.AES_ECB_Encrypt_Append), (360 bytes).
    Removing crypto.o(i.AES_ECB_Encrypt_Finish), (28 bytes).
    Removing crypto.o(i.AES_ECB_Encrypt_Init), (10 bytes).
    Removing crypto.o(i.AES_GCM_Decrypt_Append), (20 bytes).
    Removing crypto.o(i.AES_GCM_Decrypt_Finish), (12 bytes).
    Removing crypto.o(i.AES_GCM_Decrypt_Init), (8 bytes).
    Removing crypto.o(i.AES_GCM_Encrypt_Append), (20 bytes).
    Removing crypto.o(i.AES_GCM_Encrypt_Finish), (10 bytes).
    Removing crypto.o(i.AES_GCM_Encrypt_Init), (916 bytes).
    Removing crypto.o(i.AES_GCM_Header_Append), (592 bytes).
    Removing crypto.o(i.AES_KeyWrap_Decrypt_Append), (336 bytes).
    Removing crypto.o(i.AES_KeyWrap_Decrypt_Finish), (56 bytes).
    Removing crypto.o(i.AES_KeyWrap_Decrypt_Init), (24 bytes).
    Removing crypto.o(i.AES_KeyWrap_Encrypt_Append), (456 bytes).
    Removing crypto.o(i.AES_KeyWrap_Encrypt_Finish), (28 bytes).
    Removing crypto.o(i.AES_KeyWrap_Encrypt_Init), (24 bytes).
    Removing crypto.o(i.AES_OFB_Decrypt_Append), (12 bytes).
    Removing crypto.o(i.AES_OFB_Decrypt_Finish), (28 bytes).
    Removing crypto.o(i.AES_OFB_Decrypt_Init), (8 bytes).
    Removing crypto.o(i.AES_OFB_Encrypt_Append), (656 bytes).
    Removing crypto.o(i.AES_OFB_Encrypt_Finish), (28 bytes).
    Removing crypto.o(i.AES_OFB_Encrypt_Init), (140 bytes).
    Removing crypto.o(i.AES_XTS_Common_Append), (1560 bytes).
    Removing crypto.o(i.AES_XTS_Common_Init), (292 bytes).
    Removing crypto.o(i.AES_XTS_Decrypt_Append), (24 bytes).
    Removing crypto.o(i.AES_XTS_Decrypt_Finish), (28 bytes).
    Removing crypto.o(i.AES_XTS_Decrypt_Init), (10 bytes).
    Removing crypto.o(i.AES_XTS_Encrypt_Append), (24 bytes).
    Removing crypto.o(i.AES_XTS_Encrypt_Finish), (28 bytes).
    Removing crypto.o(i.AES_XTS_Encrypt_Init), (10 bytes).
    Removing crypto.o(i.AES_general_SW_dec), (748 bytes).
    Removing crypto.o(i.AES_keyschedule_dec), (280 bytes).
    Removing crypto.o(i.AES_keyschedule_enc), (60 bytes).
    Removing crypto.o(i.AESgcmAppend), (2206 bytes).
    Removing crypto.o(i.AESgcmFinal), (496 bytes).
    Removing crypto.o(i.AESstdInit), (260 bytes).
    Removing crypto.o(i.ARC4_Decrypt_Append), (12 bytes).
    Removing crypto.o(i.ARC4_Decrypt_Finish), (28 bytes).
    Removing crypto.o(i.ARC4_Decrypt_Init), (132 bytes).
    Removing crypto.o(i.ARC4_Encrypt_Append), (296 bytes).
    Removing crypto.o(i.ARC4_Encrypt_Finish), (28 bytes).
    Removing crypto.o(i.ARC4_Encrypt_Init), (132 bytes).
    Removing crypto.o(i.AddBig), (296 bytes).
    Removing crypto.o(i.Add_Moduli_Big), (354 bytes).
    Removing crypto.o(i.Big_to_W8), (110 bytes).
    Removing crypto.o(i.Big_to_fixedW8), (80 bytes).
    Removing crypto.o(i.Binary_DoublePointMul), (320 bytes).
    Removing crypto.o(i.C25519keyExchange), (1262 bytes).
    Removing crypto.o(i.C25519keyGen), (88 bytes).
    Removing crypto.o(i.CHACHA_Decrypt_Append), (12 bytes).
    Removing crypto.o(i.CHACHA_Decrypt_Finish), (32 bytes).
    Removing crypto.o(i.CHACHA_Decrypt_Init), (8 bytes).
    Removing crypto.o(i.CHACHA_Encrypt_Append), (1408 bytes).
    Removing crypto.o(i.CHACHA_Encrypt_Finish), (32 bytes).
    Removing crypto.o(i.CHACHA_Encrypt_Init), (568 bytes).
    Removing crypto.o(i.ChaCha20Poly1305_Append), (1622 bytes).
    Removing crypto.o(i.ChaCha20Poly1305_Decrypt_Append), (20 bytes).
    Removing crypto.o(i.ChaCha20Poly1305_Decrypt_Finish), (172 bytes).
    Removing crypto.o(i.ChaCha20Poly1305_Decrypt_Init), (8 bytes).
    Removing crypto.o(i.ChaCha20Poly1305_Encrypt_Append), (20 bytes).
    Removing crypto.o(i.ChaCha20Poly1305_Encrypt_Finish), (208 bytes).
    Removing crypto.o(i.ChaCha20Poly1305_Encrypt_Init), (736 bytes).
    Removing crypto.o(i.ChaCha20Poly1305_Header_Append), (240 bytes).
    Removing crypto.o(i.CompareBig), (158 bytes).
    Removing crypto.o(i.CopyBig), (84 bytes).
    Removing crypto.o(i.CountBits), (50 bytes).
    Removing crypto.o(i.CountBytes), (42 bytes).
    Removing crypto.o(i.DES_CBC_Decrypt_Append), (252 bytes).
    Removing crypto.o(i.DES_CBC_Decrypt_Finish), (32 bytes).
    Removing crypto.o(i.DES_CBC_Decrypt_Init), (10 bytes).
    Removing crypto.o(i.DES_CBC_Encrypt_Append), (236 bytes).
    Removing crypto.o(i.DES_CBC_Encrypt_Finish), (32 bytes).
    Removing crypto.o(i.DES_CBC_Encrypt_Init), (10 bytes).
    Removing crypto.o(i.DES_ECB_Decrypt_Append), (12 bytes).
    Removing crypto.o(i.DES_ECB_Decrypt_Finish), (32 bytes).
    Removing crypto.o(i.DES_ECB_Decrypt_Init), (10 bytes).
    Removing crypto.o(i.DES_ECB_Encrypt_Append), (220 bytes).
    Removing crypto.o(i.DES_ECB_Encrypt_Finish), (32 bytes).
    Removing crypto.o(i.DES_ECB_Encrypt_Init), (10 bytes).
    Removing crypto.o(i.DESstdInit), (208 bytes).
    Removing crypto.o(i.ECCcopyPoint), (108 bytes).
    Removing crypto.o(i.ECCfreeEC), (144 bytes).
    Removing crypto.o(i.ECCfreePoint), (72 bytes).
    Removing crypto.o(i.ECCfreePrivKey), (52 bytes).
    Removing crypto.o(i.ECCgetPointCoordinate), (192 bytes).
    Removing crypto.o(i.ECCgetPointFlag), (16 bytes).
    Removing crypto.o(i.ECCgetPrivKeyValue), (136 bytes).
    Removing crypto.o(i.ECCinitEC), (464 bytes).
    Removing crypto.o(i.ECCinitPoint), (224 bytes).
    Removing crypto.o(i.ECCinitPrivKey), (120 bytes).
    Removing crypto.o(i.ECCkeyGen), (408 bytes).
    Removing crypto.o(i.ECCpoint2Monty), (64 bytes).
    Removing crypto.o(i.ECCpointFromMonty), (62 bytes).
    Removing crypto.o(i.ECCscalarMul), (240 bytes).
    Removing crypto.o(i.ECCsetPointCoordinate), (84 bytes).
    Removing crypto.o(i.ECCsetPointFlag), (8 bytes).
    Removing crypto.o(i.ECCsetPointGenerator), (136 bytes).
    Removing crypto.o(i.ECCsetPrivKeyValue), (48 bytes).
    Removing crypto.o(i.ECCsymmetricPoint), (34 bytes).
    Removing crypto.o(i.ECCvalidatePubKey), (564 bytes).
    Removing crypto.o(i.ECDSAfreeSign), (56 bytes).
    Removing crypto.o(i.ECDSAgetSignature), (180 bytes).
    Removing crypto.o(i.ECDSAinitSign), (140 bytes).
    Removing crypto.o(i.ECDSAsetSignature), (64 bytes).
    Removing crypto.o(i.ECDSAsign), (1096 bytes).
    Removing crypto.o(i.ECDSAverify), (712 bytes).
    Removing crypto.o(i.ED25519keyGen), (156 bytes).
    Removing crypto.o(i.ED25519sign), (436 bytes).
    Removing crypto.o(i.ED25519verify), (296 bytes).
    Removing crypto.o(i.EvenBig), (16 bytes).
    Removing crypto.o(i.FastDiv2), (72 bytes).
    Removing crypto.o(i.FastDivInnerBase), (54 bytes).
    Removing crypto.o(i.FastMul2), (88 bytes).
    Removing crypto.o(i.FastMulInnerBase), (96 bytes).
    Removing crypto.o(i.GenRndBN), (136 bytes).
    Removing crypto.o(i.GenRndBNmodN), (188 bytes).
    Removing crypto.o(i.GiveBit), (28 bytes).
    Removing crypto.o(i.HKDF_SHA512), (476 bytes).
    Removing crypto.o(i.HMAC_MD5_Append), (56 bytes).
    Removing crypto.o(i.HMAC_MD5_Finish), (168 bytes).
    Removing crypto.o(i.HMAC_MD5_Init), (376 bytes).
    Removing crypto.o(i.HMAC_SHA1_Append), (24 bytes).
    Removing crypto.o(i.HMAC_SHA1_Finish), (152 bytes).
    Removing crypto.o(i.HMAC_SHA1_Init), (368 bytes).
    Removing crypto.o(i.HMAC_SHA224_Append), (56 bytes).
    Removing crypto.o(i.HMAC_SHA224_Finish), (204 bytes).
    Removing crypto.o(i.HMAC_SHA224_Init), (424 bytes).
    Removing crypto.o(i.HMAC_SHA256_Append), (56 bytes).
    Removing crypto.o(i.HMAC_SHA256_Finish), (208 bytes).
    Removing crypto.o(i.HMAC_SHA256_Init), (424 bytes).
    Removing crypto.o(i.HMAC_SHA384_Append), (40 bytes).
    Removing crypto.o(i.HMAC_SHA384_Finish), (316 bytes).
    Removing crypto.o(i.HMAC_SHA384_Init), (536 bytes).
    Removing crypto.o(i.HMAC_SHA512_Append), (40 bytes).
    Removing crypto.o(i.HMAC_SHA512_Finish), (128 bytes).
    Removing crypto.o(i.HMAC_SHA512_Init), (328 bytes).
    Removing crypto.o(i.InitBig), (62 bytes).
    Removing crypto.o(i.IsZeroBig), (22 bytes).
    Removing crypto.o(i.LeftShift), (112 bytes).
    Removing crypto.o(i.MD5_Append), (44 bytes).
    Removing crypto.o(i.MD5_Finish), (152 bytes).
    Removing crypto.o(i.MD5_Init), (64 bytes).
    Removing crypto.o(i.ModularAddBig), (72 bytes).
    Removing crypto.o(i.ModularExpSlidWin), (580 bytes).
    Removing crypto.o(i.ModularFastMul2), (60 bytes).
    Removing crypto.o(i.ModularInvBig), (476 bytes).
    Removing crypto.o(i.ModularSubBig), (46 bytes).
    Removing crypto.o(i.MontyExit), (68 bytes).
    Removing crypto.o(i.MontyInit), (336 bytes).
    Removing crypto.o(i.MontyJacProjAddPoints), (592 bytes).
    Removing crypto.o(i.MontyJacProjDoublePoint), (540 bytes).
    Removing crypto.o(i.MontyKillAll), (26 bytes).
    Removing crypto.o(i.MontyKillR2), (12 bytes).
    Removing crypto.o(i.MontyMul), (420 bytes).
    Removing crypto.o(i.MulBigbyUnInt), (112 bytes).
    Removing crypto.o(i.NAF_Binary_PointMul), (644 bytes).
    Removing crypto.o(i.Normalize), (266 bytes).
    Removing crypto.o(i.Poly1305_Auth_Append), (212 bytes).
    Removing crypto.o(i.Poly1305_Auth_Finish), (168 bytes).
    Removing crypto.o(i.Poly1305_Auth_Init), (472 bytes).
    Removing crypto.o(i.Poly1305_Core_Finish), (880 bytes).
    Removing crypto.o(i.Poly1305_Core_Update), (2020 bytes).
    Removing crypto.o(i.Poly1305_Verify_Append), (8 bytes).
    Removing crypto.o(i.Poly1305_Verify_Finish), (140 bytes).
    Removing crypto.o(i.Poly1305_Verify_Init), (8 bytes).
    Removing crypto.o(i.RNGgenWords), (10 bytes).
    Removing crypto.o(i.RNGreseed), (160 bytes).
    Removing crypto.o(i.RSASP1), (96 bytes).
    Removing crypto.o(i.RSAVP1), (34 bytes).
    Removing crypto.o(i.RSA_PKCS1v15_Decrypt), (412 bytes).
    Removing crypto.o(i.RSA_PKCS1v15_Encrypt), (500 bytes).
    Removing crypto.o(i.RSA_PKCS1v15_Sign), (568 bytes).
    Removing crypto.o(i.RSA_PKCS1v15_Verify), (744 bytes).
    Removing crypto.o(i.RightShift), (80 bytes).
    Removing crypto.o(i.SHA1Final), (498 bytes).
    Removing crypto.o(i.SHA1Init), (48 bytes).
    Removing crypto.o(i.SHA1Transform), (1160 bytes).
    Removing crypto.o(i.SHA1Update), (146 bytes).
    Removing crypto.o(i.SHA1_Append), (184 bytes).
    Removing crypto.o(i.SHA1_Finish), (152 bytes).
    Removing crypto.o(i.SHA1_Init), (72 bytes).
    Removing crypto.o(i.SHA224Final), (420 bytes).
    Removing crypto.o(i.SHA224Init), (72 bytes).
    Removing crypto.o(i.SHA224_Append), (44 bytes).
    Removing crypto.o(i.SHA224_Finish), (152 bytes).
    Removing crypto.o(i.SHA224_Init), (96 bytes).
    Removing crypto.o(i.SHA256Final), (418 bytes).
    Removing crypto.o(i.SHA256Init), (72 bytes).
    Removing crypto.o(i.SHA256Transform), (752 bytes).
    Removing crypto.o(i.SHA256Update), (146 bytes).
    Removing crypto.o(i.SHA256_Append), (44 bytes).
    Removing crypto.o(i.SHA256_Finish), (152 bytes).
    Removing crypto.o(i.SHA256_Init), (96 bytes).
    Removing crypto.o(i.SHA384Final), (452 bytes).
    Removing crypto.o(i.SHA384Init), (144 bytes).
    Removing crypto.o(i.SHA384_Append), (40 bytes).
    Removing crypto.o(i.SHA384_Finish), (152 bytes).
    Removing crypto.o(i.SHA384_Init), (164 bytes).
    Removing crypto.o(i.SHA512Final), (452 bytes).
    Removing crypto.o(i.SHA512Init), (144 bytes).
    Removing crypto.o(i.SHA512Transform), (1344 bytes).
    Removing crypto.o(i.SHA512Update), (150 bytes).
    Removing crypto.o(i.SHA512_Append), (40 bytes).
    Removing crypto.o(i.SHA512_Finish), (152 bytes).
    Removing crypto.o(i.SHA512_Init), (164 bytes).
    Removing crypto.o(i.STM32_GetCryptoLibrarySettings), (68 bytes).
    Removing crypto.o(i.SetZeroBig), (40 bytes).
    Removing crypto.o(i.SignBig), (10 bytes).
    Removing crypto.o(i.StAllocBig), (60 bytes).
    Removing crypto.o(i.StFreeBig), (28 bytes).
    Removing crypto.o(i.SubBig), (216 bytes).
    Removing crypto.o(i.Sub_Moduli_Big), (248 bytes).
    Removing crypto.o(i.TDES_CBC_Decrypt_Append), (276 bytes).
    Removing crypto.o(i.TDES_CBC_Decrypt_Finish), (32 bytes).
    Removing crypto.o(i.TDES_CBC_Decrypt_Init), (10 bytes).
    Removing crypto.o(i.TDES_CBC_Encrypt_Append), (260 bytes).
    Removing crypto.o(i.TDES_CBC_Encrypt_Finish), (32 bytes).
    Removing crypto.o(i.TDES_CBC_Encrypt_Init), (10 bytes).
    Removing crypto.o(i.TDES_ECB_Decrypt_Append), (12 bytes).
    Removing crypto.o(i.TDES_ECB_Decrypt_Finish), (32 bytes).
    Removing crypto.o(i.TDES_ECB_Decrypt_Init), (10 bytes).
    Removing crypto.o(i.TDES_ECB_Encrypt_Append), (248 bytes).
    Removing crypto.o(i.TDES_ECB_Encrypt_Finish), (32 bytes).
    Removing crypto.o(i.TDES_ECB_Encrypt_Init), (10 bytes).
    Removing crypto.o(i.TDESstdInit), (252 bytes).
    Removing crypto.o(i.W32_to_W8), (84 bytes).
    Removing crypto.o(i.W8_to_Big), (248 bytes).
    Removing crypto.o(i.barrett_reduce), (404 bytes).
    Removing crypto.o(i.crl_DRBG_AES128_Instantiate), (176 bytes).
    Removing crypto.o(i.crl_DRBG_AES128_Reseed), (140 bytes).
    Removing crypto.o(i.crl_ModularExp), (288 bytes).
    Removing crypto.o(i.crl_u_MD5_Finish), (192 bytes).
    Removing crypto.o(i.crl_u_MD5_Init), (40 bytes).
    Removing crypto.o(i.crl_u_MD5_Update), (144 bytes).
    Removing crypto.o(i.desfunc), (492 bytes).
    Removing crypto.o(i.deskey), (500 bytes).
    Removing crypto.o(i.ed25519_add), (220 bytes).
    Removing crypto.o(i.fe25519_add), (60 bytes).
    Removing crypto.o(i.fe25519_cmov), (30 bytes).
    Removing crypto.o(i.fe25519_copy), (20 bytes).
    Removing crypto.o(i.fe25519_freeze), (110 bytes).
    Removing crypto.o(i.fe25519_getparity), (36 bytes).
    Removing crypto.o(i.fe25519_invert), (472 bytes).
    Removing crypto.o(i.fe25519_iseq_vartime), (74 bytes).
    Removing crypto.o(i.fe25519_mul), (520 bytes).
    Removing crypto.o(i.fe25519_mult121665), (60 bytes).
    Removing crypto.o(i.fe25519_neg), (44 bytes).
    Removing crypto.o(i.fe25519_pack), (68 bytes).
    Removing crypto.o(i.fe25519_pow2523), (336 bytes).
    Removing crypto.o(i.fe25519_setone), (18 bytes).
    Removing crypto.o(i.fe25519_setzero), (16 bytes).
    Removing crypto.o(i.fe25519_square), (10 bytes).
    Removing crypto.o(i.fe25519_sub), (120 bytes).
    Removing crypto.o(i.fe25519_unpack), (70 bytes).
    Removing crypto.o(i.ge25519_double_scalarmult_vartime), (298 bytes).
    Removing crypto.o(i.ge25519_pack), (64 bytes).
    Removing crypto.o(i.ge25519_scalarmult_base), (296 bytes).
    Removing crypto.o(i.ge25519_unpackneg_vartime), (292 bytes).
    Removing crypto.o(i.gfmul), (308 bytes).
    Removing crypto.o(i.md5_process), (1948 bytes).
    Removing crypto.o(i.reduceRS), (120 bytes).
    Removing crypto.o(i.reduce_add_sub), (188 bytes).
    Removing crypto.o(i.salsa20_wordtobyte), (1404 bytes).
    Removing crypto.o(i.sc25519_add), (54 bytes).
    Removing crypto.o(i.sc25519_from32bytes), (86 bytes).
    Removing crypto.o(i.sc25519_from64bytes), (72 bytes).
    Removing crypto.o(i.sc25519_mul), (104 bytes).
    Removing crypto.o(i.sc25519_to32bytes), (40 bytes).
    Removing crypto.o(.constdata), (1 bytes).
    Removing crypto.o(.constdata), (1 bytes).
    Removing crypto.o(.constdata), (1 bytes).
    Removing crypto.o(.constdata), (1 bytes).
    Removing crypto.o(.constdata), (1 bytes).
    Removing crypto.o(.constdata), (1 bytes).
    Removing crypto.o(.constdata), (1 bytes).
    Removing crypto.o(.constdata), (2 bytes).
    Removing crypto.o(.constdata), (2 bytes).
    Removing crypto.o(.constdata), (2 bytes).
    Removing crypto.o(.constdata), (2 bytes).
    Removing crypto.o(.constdata), (2 bytes).
    Removing crypto.o(.constdata), (1 bytes).
    Removing crypto.o(.constdata), (1 bytes).
    Removing crypto.o(.constdata), (1 bytes).
    Removing crypto.o(.constdata), (1 bytes).
    Removing stm32l0xx_hal_dma.o(i.__ARM_common_switch8), (26 bytes).

730 unused section(s) (total 101040 bytes) removed from the image.

==============================================================================

Image Symbol Table

    Local Symbols

    Symbol Name                              Value     Ov Type        Size  Object(Section)

    ../Core/Src/crc.c                        0x00000000   Number         0  crc.o ABSOLUTE
    ../Core/Src/gpio.c                       0x00000000   Number         0  gpio.o ABSOLUTE
    ../Core/Src/iwdg.c                       0x00000000   Number         0  iwdg.o ABSOLUTE
    ../Core/Src/main.c                       0x00000000   Number         0  main.o ABSOLUTE
    ../Core/Src/rtc.c                        0x00000000   Number         0  rtc.o ABSOLUTE
    ../Core/Src/spi.c                        0x00000000   Number         0  spi.o ABSOLUTE
    ../Core/Src/stm32l0xx_hal_msp.c          0x00000000   Number         0  stm32l0xx_hal_msp.o ABSOLUTE
    ../Core/Src/stm32l0xx_it.c               0x00000000   Number         0  stm32l0xx_it.o ABSOLUTE
    ../Core/Src/system_stm32l0xx.c           0x00000000   Number         0  system_stm32l0xx.o ABSOLUTE
    ../Core/Src/usart.c                      0x00000000   Number         0  usart.o ABSOLUTE
    ../Drivers/STM32L0xx_HAL_Driver/Src/stm32l0xx_hal.c 0x00000000   Number         0  stm32l0xx_hal.o ABSOLUTE
    ../Drivers/STM32L0xx_HAL_Driver/Src/stm32l0xx_hal_cortex.c 0x00000000   Number         0  stm32l0xx_hal_cortex.o ABSOLUTE
    ../Drivers/STM32L0xx_HAL_Driver/Src/stm32l0xx_hal_crc.c 0x00000000   Number         0  stm32l0xx_hal_crc.o ABSOLUTE
    ../Drivers/STM32L0xx_HAL_Driver/Src/stm32l0xx_hal_crc_ex.c 0x00000000   Number         0  stm32l0xx_hal_crc_ex.o ABSOLUTE
    ../Drivers/STM32L0xx_HAL_Driver/Src/stm32l0xx_hal_dma.c 0x00000000   Number         0  stm32l0xx_hal_dma.o ABSOLUTE
    ../Drivers/STM32L0xx_HAL_Driver/Src/stm32l0xx_hal_exti.c 0x00000000   Number         0  stm32l0xx_hal_exti.o ABSOLUTE
    ../Drivers/STM32L0xx_HAL_Driver/Src/stm32l0xx_hal_flash.c 0x00000000   Number         0  stm32l0xx_hal_flash.o ABSOLUTE
    ../Drivers/STM32L0xx_HAL_Driver/Src/stm32l0xx_hal_flash_ex.c 0x00000000   Number         0  stm32l0xx_hal_flash_ex.o ABSOLUTE
    ../Drivers/STM32L0xx_HAL_Driver/Src/stm32l0xx_hal_flash_ramfunc.c 0x00000000   Number         0  stm32l0xx_hal_flash_ramfunc.o ABSOLUTE
    ../Drivers/STM32L0xx_HAL_Driver/Src/stm32l0xx_hal_gpio.c 0x00000000   Number         0  stm32l0xx_hal_gpio.o ABSOLUTE
    ../Drivers/STM32L0xx_HAL_Driver/Src/stm32l0xx_hal_i2c.c 0x00000000   Number         0  stm32l0xx_hal_i2c.o ABSOLUTE
    ../Drivers/STM32L0xx_HAL_Driver/Src/stm32l0xx_hal_i2c_ex.c 0x00000000   Number         0  stm32l0xx_hal_i2c_ex.o ABSOLUTE
    ../Drivers/STM32L0xx_HAL_Driver/Src/stm32l0xx_hal_pwr.c 0x00000000   Number         0  stm32l0xx_hal_pwr.o ABSOLUTE
    ../Drivers/STM32L0xx_HAL_Driver/Src/stm32l0xx_hal_pwr_ex.c 0x00000000   Number         0  stm32l0xx_hal_pwr_ex.o ABSOLUTE
    ../Drivers/STM32L0xx_HAL_Driver/Src/stm32l0xx_hal_rcc.c 0x00000000   Number         0  stm32l0xx_hal_rcc.o ABSOLUTE
    ../Drivers/STM32L0xx_HAL_Driver/Src/stm32l0xx_hal_rcc_ex.c 0x00000000   Number         0  stm32l0xx_hal_rcc_ex.o ABSOLUTE
    ../Drivers/STM32L0xx_HAL_Driver/Src/stm32l0xx_hal_rtc.c 0x00000000   Number         0  stm32l0xx_hal_rtc.o ABSOLUTE
    ../Drivers/STM32L0xx_HAL_Driver/Src/stm32l0xx_hal_rtc_ex.c 0x00000000   Number         0  stm32l0xx_hal_rtc_ex.o ABSOLUTE
    ../Drivers/STM32L0xx_HAL_Driver/Src/stm32l0xx_hal_tim.c 0x00000000   Number         0  stm32l0xx_hal_tim.o ABSOLUTE
    ../Drivers/STM32L0xx_HAL_Driver/Src/stm32l0xx_hal_tim_ex.c 0x00000000   Number         0  stm32l0xx_hal_tim_ex.o ABSOLUTE
    ../Drivers/STM32L0xx_HAL_Driver/Src/stm32l0xx_ll_dma.c 0x00000000   Number         0  stm32l0xx_ll_dma.o ABSOLUTE
    ../Drivers/STM32L0xx_HAL_Driver/Src/stm32l0xx_ll_exti.c 0x00000000   Number         0  stm32l0xx_ll_exti.o ABSOLUTE
    ../Drivers/STM32L0xx_HAL_Driver/Src/stm32l0xx_ll_gpio.c 0x00000000   Number         0  stm32l0xx_ll_gpio.o ABSOLUTE
    ../Drivers/STM32L0xx_HAL_Driver/Src/stm32l0xx_ll_rcc.c 0x00000000   Number         0  stm32l0xx_ll_rcc.o ABSOLUTE
    ../Drivers/STM32L0xx_HAL_Driver/Src/stm32l0xx_ll_spi.c 0x00000000   Number         0  stm32l0xx_ll_spi.o ABSOLUTE
    ../Drivers/STM32L0xx_HAL_Driver/Src/stm32l0xx_ll_usart.c 0x00000000   Number         0  stm32l0xx_ll_usart.o ABSOLUTE
    ../Drivers/STM32L0xx_HAL_Driver/Src/stm32l0xx_ll_utils.c 0x00000000   Number         0  stm32l0xx_ll_utils.o ABSOLUTE
    ../clib/microlib/division.c              0x00000000   Number         0  idiv.o ABSOLUTE
    ../clib/microlib/division.c              0x00000000   Number         0  uidiv.o ABSOLUTE
    ../clib/microlib/division.c              0x00000000   Number         0  uldiv.o ABSOLUTE
    ../clib/microlib/init/entry.s            0x00000000   Number         0  entry10b.o ABSOLUTE
    ../clib/microlib/init/entry.s            0x00000000   Number         0  entry8b.o ABSOLUTE
    ../clib/microlib/init/entry.s            0x00000000   Number         0  entry8a.o ABSOLUTE
    ../clib/microlib/init/entry.s            0x00000000   Number         0  entry7b.o ABSOLUTE
    ../clib/microlib/init/entry.s            0x00000000   Number         0  entry7a.o ABSOLUTE
    ../clib/microlib/init/entry.s            0x00000000   Number         0  entry5.o ABSOLUTE
    ../clib/microlib/init/entry.s            0x00000000   Number         0  entry9b.o ABSOLUTE
    ../clib/microlib/init/entry.s            0x00000000   Number         0  entry10a.o ABSOLUTE
    ../clib/microlib/init/entry.s            0x00000000   Number         0  entry2.o ABSOLUTE
    ../clib/microlib/init/entry.s            0x00000000   Number         0  entry.o ABSOLUTE
    ../clib/microlib/init/entry.s            0x00000000   Number         0  entry11a.o ABSOLUTE
    ../clib/microlib/init/entry.s            0x00000000   Number         0  entry11b.o ABSOLUTE
    ../clib/microlib/init/entry.s            0x00000000   Number         0  entry9a.o ABSOLUTE
    ../clib/microlib/longlong.c              0x00000000   Number         0  llushr.o ABSOLUTE
    ../clib/microlib/longlong.c              0x00000000   Number         0  llmul.o ABSOLUTE
    ../clib/microlib/longlong.c              0x00000000   Number         0  llshl.o ABSOLUTE
    ../clib/microlib/stdlib/rand.c           0x00000000   Number         0  rand.o ABSOLUTE
    ../clib/microlib/string/memcpy.c         0x00000000   Number         0  memmovea.o ABSOLUTE
    ../clib/microlib/string/memcpy.c         0x00000000   Number         0  memcpya.o ABSOLUTE
    ../clib/microlib/string/memcpy.c         0x00000000   Number         0  memmoveb.o ABSOLUTE
    ../clib/microlib/string/memcpy.c         0x00000000   Number         0  memcpyb.o ABSOLUTE
    ../clib/microlib/string/memset.c         0x00000000   Number         0  memseta.o ABSOLUTE
    ../clib/microlib/unhosted.c              0x00000000   Number         0  uread4.o ABSOLUTE
    ..\Core\Src\adxl362.c                    0x00000000   Number         0  adxl362.o ABSOLUTE
    ..\Core\Src\cc1101.c                     0x00000000   Number         0  cc1101.o ABSOLUTE
    ..\Core\Src\crc.c                        0x00000000   Number         0  crc.o ABSOLUTE
    ..\Core\Src\gpio.c                       0x00000000   Number         0  gpio.o ABSOLUTE
    ..\Core\Src\iwdg.c                       0x00000000   Number         0  iwdg.o ABSOLUTE
    ..\Core\Src\main.c                       0x00000000   Number         0  main.o ABSOLUTE
    ..\Core\Src\rand_bytes_gen.c             0x00000000   Number         0  rand_bytes_gen.o ABSOLUTE
    ..\Core\Src\rtc.c                        0x00000000   Number         0  rtc.o ABSOLUTE
    ..\Core\Src\spi.c                        0x00000000   Number         0  spi.o ABSOLUTE
    ..\Core\Src\stm32l0xx_hal_msp.c          0x00000000   Number         0  stm32l0xx_hal_msp.o ABSOLUTE
    ..\Core\Src\stm32l0xx_it.c               0x00000000   Number         0  stm32l0xx_it.o ABSOLUTE
    ..\Core\Src\system_stm32l0xx.c           0x00000000   Number         0  system_stm32l0xx.o ABSOLUTE
    ..\Core\Src\usart.c                      0x00000000   Number         0  usart.o ABSOLUTE
    ..\Crypto_Sources_Files\crypto.c         0x00000000   Number         0  crypto.o ABSOLUTE
    ..\Drivers\STM32L0xx_HAL_Driver\Src\stm32l0xx_hal.c 0x00000000   Number         0  stm32l0xx_hal.o ABSOLUTE
    ..\Drivers\STM32L0xx_HAL_Driver\Src\stm32l0xx_hal_cortex.c 0x00000000   Number         0  stm32l0xx_hal_cortex.o ABSOLUTE
    ..\Drivers\STM32L0xx_HAL_Driver\Src\stm32l0xx_hal_crc.c 0x00000000   Number         0  stm32l0xx_hal_crc.o ABSOLUTE
    ..\Drivers\STM32L0xx_HAL_Driver\Src\stm32l0xx_hal_crc_ex.c 0x00000000   Number         0  stm32l0xx_hal_crc_ex.o ABSOLUTE
    ..\Drivers\STM32L0xx_HAL_Driver\Src\stm32l0xx_hal_dma.c 0x00000000   Number         0  stm32l0xx_hal_dma.o ABSOLUTE
    ..\Drivers\STM32L0xx_HAL_Driver\Src\stm32l0xx_hal_exti.c 0x00000000   Number         0  stm32l0xx_hal_exti.o ABSOLUTE
    ..\Drivers\STM32L0xx_HAL_Driver\Src\stm32l0xx_hal_flash.c 0x00000000   Number         0  stm32l0xx_hal_flash.o ABSOLUTE
    ..\Drivers\STM32L0xx_HAL_Driver\Src\stm32l0xx_hal_flash_ex.c 0x00000000   Number         0  stm32l0xx_hal_flash_ex.o ABSOLUTE
    ..\Drivers\STM32L0xx_HAL_Driver\Src\stm32l0xx_hal_flash_ramfunc.c 0x00000000   Number         0  stm32l0xx_hal_flash_ramfunc.o ABSOLUTE
    ..\Drivers\STM32L0xx_HAL_Driver\Src\stm32l0xx_hal_gpio.c 0x00000000   Number         0  stm32l0xx_hal_gpio.o ABSOLUTE
    ..\Drivers\STM32L0xx_HAL_Driver\Src\stm32l0xx_hal_i2c.c 0x00000000   Number         0  stm32l0xx_hal_i2c.o ABSOLUTE
    ..\Drivers\STM32L0xx_HAL_Driver\Src\stm32l0xx_hal_i2c_ex.c 0x00000000   Number         0  stm32l0xx_hal_i2c_ex.o ABSOLUTE
    ..\Drivers\STM32L0xx_HAL_Driver\Src\stm32l0xx_hal_pwr.c 0x00000000   Number         0  stm32l0xx_hal_pwr.o ABSOLUTE
    ..\Drivers\STM32L0xx_HAL_Driver\Src\stm32l0xx_hal_pwr_ex.c 0x00000000   Number         0  stm32l0xx_hal_pwr_ex.o ABSOLUTE
    ..\Drivers\STM32L0xx_HAL_Driver\Src\stm32l0xx_hal_rcc.c 0x00000000   Number         0  stm32l0xx_hal_rcc.o ABSOLUTE
    ..\Drivers\STM32L0xx_HAL_Driver\Src\stm32l0xx_hal_rcc_ex.c 0x00000000   Number         0  stm32l0xx_hal_rcc_ex.o ABSOLUTE
    ..\Drivers\STM32L0xx_HAL_Driver\Src\stm32l0xx_hal_rtc.c 0x00000000   Number         0  stm32l0xx_hal_rtc.o ABSOLUTE
    ..\Drivers\STM32L0xx_HAL_Driver\Src\stm32l0xx_hal_rtc_ex.c 0x00000000   Number         0  stm32l0xx_hal_rtc_ex.o ABSOLUTE
    ..\Drivers\STM32L0xx_HAL_Driver\Src\stm32l0xx_hal_tim.c 0x00000000   Number         0  stm32l0xx_hal_tim.o ABSOLUTE
    ..\Drivers\STM32L0xx_HAL_Driver\Src\stm32l0xx_hal_tim_ex.c 0x00000000   Number         0  stm32l0xx_hal_tim_ex.o ABSOLUTE
    ..\Drivers\STM32L0xx_HAL_Driver\Src\stm32l0xx_ll_dma.c 0x00000000   Number         0  stm32l0xx_ll_dma.o ABSOLUTE
    ..\Drivers\STM32L0xx_HAL_Driver\Src\stm32l0xx_ll_exti.c 0x00000000   Number         0  stm32l0xx_ll_exti.o ABSOLUTE
    ..\Drivers\STM32L0xx_HAL_Driver\Src\stm32l0xx_ll_gpio.c 0x00000000   Number         0  stm32l0xx_ll_gpio.o ABSOLUTE
    ..\Drivers\STM32L0xx_HAL_Driver\Src\stm32l0xx_ll_rcc.c 0x00000000   Number         0  stm32l0xx_ll_rcc.o ABSOLUTE
    ..\Drivers\STM32L0xx_HAL_Driver\Src\stm32l0xx_ll_spi.c 0x00000000   Number         0  stm32l0xx_ll_spi.o ABSOLUTE
    ..\Drivers\STM32L0xx_HAL_Driver\Src\stm32l0xx_ll_usart.c 0x00000000   Number         0  stm32l0xx_ll_usart.o ABSOLUTE
    ..\Drivers\STM32L0xx_HAL_Driver\Src\stm32l0xx_ll_utils.c 0x00000000   Number         0  stm32l0xx_ll_utils.o ABSOLUTE
    ..\\Core\\Src\\adxl362.c                 0x00000000   Number         0  adxl362.o ABSOLUTE
    ..\\Core\\Src\\cc1101.c                  0x00000000   Number         0  cc1101.o ABSOLUTE
    ..\\Core\\Src\\rand_bytes_gen.c          0x00000000   Number         0  rand_bytes_gen.o ABSOLUTE
    ..\\Crypto_Sources_Files\\crypto.c       0x00000000   Number         0  crypto.o ABSOLUTE
    dc.s                                     0x00000000   Number         0  dc.o ABSOLUTE
    handlers.s                               0x00000000   Number         0  handlers.o ABSOLUTE
    init.s                                   0x00000000   Number         0  init.o ABSOLUTE
    startup_stm32l051xx.s                    0x00000000   Number         0  startup_stm32l051xx.o ABSOLUTE
    RESET                                    0x08000000   Section      192  startup_stm32l051xx.o(RESET)
    .ARM.Collect$$$$00000000                 0x080000c0   Section        0  entry.o(.ARM.Collect$$$$00000000)
    .ARM.Collect$$$$00000001                 0x080000c0   Section        4  entry2.o(.ARM.Collect$$$$00000001)
    .ARM.Collect$$$$00000004                 0x080000c4   Section        4  entry5.o(.ARM.Collect$$$$00000004)
    .ARM.Collect$$$$00000008                 0x080000c8   Section        0  entry7b.o(.ARM.Collect$$$$00000008)
    .ARM.Collect$$$$0000000A                 0x080000c8   Section        0  entry8b.o(.ARM.Collect$$$$0000000A)
    .ARM.Collect$$$$0000000B                 0x080000c8   Section        8  entry9a.o(.ARM.Collect$$$$0000000B)
    .ARM.Collect$$$$0000000D                 0x080000d0   Section        0  entry10a.o(.ARM.Collect$$$$0000000D)
    .ARM.Collect$$$$0000000F                 0x080000d0   Section        0  entry11a.o(.ARM.Collect$$$$0000000F)
    .ARM.Collect$$$$00002712                 0x080000d0   Section        4  entry2.o(.ARM.Collect$$$$00002712)
    __lit__00000000                          0x080000d0   Data           4  entry2.o(.ARM.Collect$$$$00002712)
    .text                                    0x080000d4   Section       28  startup_stm32l051xx.o(.text)
    .text                                    0x080000f0   Section        0  uidiv.o(.text)
    .text                                    0x0800011c   Section        0  idiv.o(.text)
    .text                                    0x08000144   Section        0  uldiv.o(.text)
    .text                                    0x080001a4   Section        0  rand.o(.text)
    .text                                    0x080001c8   Section        0  memmovea.o(.text)
    .text                                    0x08000208   Section        0  memseta.o(.text)
    .text                                    0x0800022c   Section        0  uread4.o(.text)
    .text                                    0x08000240   Section        0  llshl.o(.text)
    .text                                    0x08000260   Section        0  llushr.o(.text)
    .text                                    0x08000284   Section       36  init.o(.text)
    i.ADXL362FifoProcess                     0x080002a8   Section        0  adxl362.o(i.ADXL362FifoProcess)
    i.ADXL362FifoRead                        0x08000490   Section        0  adxl362.o(i.ADXL362FifoRead)
    i.ADXL362RegisterRead                    0x080004d0   Section        0  adxl362.o(i.ADXL362RegisterRead)
    i.ADXL362RegisterWrite                   0x08000518   Section        0  adxl362.o(i.ADXL362RegisterWrite)
    i.ADXL362_Init                           0x0800055c   Section        0  adxl362.o(i.ADXL362_Init)
    i.AES_general_SW_enc                     0x080006dc   Section        0  crypto.o(i.AES_general_SW_enc)
    i.AES_keyschedule_enc_LL                 0x080009c0   Section        0  crypto.o(i.AES_keyschedule_enc_LL)
    AES_keyschedule_enc_LL                   0x080009c1   Thumb Code   358  crypto.o(i.AES_keyschedule_enc_LL)
    i.CC1101ClrTXBuff                        0x08000b30   Section        0  cc1101.o(i.CC1101ClrTXBuff)
    i.CC1101Init                             0x08000b40   Section        0  cc1101.o(i.CC1101Init)
    i.CC1101ReadReg                          0x08000b88   Section        0  cc1101.o(i.CC1101ReadReg)
    i.CC1101Reset                            0x08000bc4   Section        0  cc1101.o(i.CC1101Reset)
    i.CC1101SendHandler                      0x08000c20   Section        0  cc1101.o(i.CC1101SendHandler)
    i.CC1101SendPacket                       0x08000d24   Section        0  cc1101.o(i.CC1101SendPacket)
    i.CC1101SetAddress                       0x08000e00   Section        0  cc1101.o(i.CC1101SetAddress)
    i.CC1101SetSYNC                          0x08000e14   Section        0  cc1101.o(i.CC1101SetSYNC)
    i.CC1101SetTRMode                        0x08000e2a   Section        0  cc1101.o(i.CC1101SetTRMode)
    i.CC1101SetWORMode                       0x08000e60   Section        0  cc1101.o(i.CC1101SetWORMode)
    i.CC1101WORInit                          0x08000e86   Section        0  cc1101.o(i.CC1101WORInit)
    i.CC1101WriteCmd                         0x08000eb4   Section        0  cc1101.o(i.CC1101WriteCmd)
    i.CC1101WriteMultiReg                    0x08000ee0   Section        0  cc1101.o(i.CC1101WriteMultiReg)
    i.CC1101WriteReg                         0x08000f28   Section        0  cc1101.o(i.CC1101WriteReg)
    i.CC1101_GDO_DeInit                      0x08000f60   Section        0  cc1101.o(i.CC1101_GDO_DeInit)
    i.CC1101_GDO_Init                        0x08000faa   Section        0  cc1101.o(i.CC1101_GDO_Init)
    i.CRC_Handle_16                          0x0800103a   Section        0  stm32l0xx_hal_crc.o(i.CRC_Handle_16)
    CRC_Handle_16                            0x0800103b   Thumb Code    56  stm32l0xx_hal_crc.o(i.CRC_Handle_16)
    i.CRC_Handle_8                           0x08001072   Section        0  stm32l0xx_hal_crc.o(i.CRC_Handle_8)
    CRC_Handle_8                             0x08001073   Thumb Code   128  stm32l0xx_hal_crc.o(i.CRC_Handle_8)
    i.DATAEEPROM_Program                     0x080010f4   Section        0  main.o(i.DATAEEPROM_Program)
    i.DRBG_AES128_Bcc                        0x0800113c   Section        0  crypto.o(i.DRBG_AES128_Bcc)
    DRBG_AES128_Bcc                          0x0800113d   Thumb Code   212  crypto.o(i.DRBG_AES128_Bcc)
    i.DRBG_AES128_Block_cipher_df            0x08001210   Section        0  crypto.o(i.DRBG_AES128_Block_cipher_df)
    DRBG_AES128_Block_cipher_df              0x08001211   Thumb Code   208  crypto.o(i.DRBG_AES128_Block_cipher_df)
    i.DRBG_AES128_Update                     0x080012e4   Section        0  crypto.o(i.DRBG_AES128_Update)
    DRBG_AES128_Update                       0x080012e5   Thumb Code   130  crypto.o(i.DRBG_AES128_Update)
    i.EXTI0_1_IRQHandler                     0x08001368   Section        0  stm32l0xx_it.o(i.EXTI0_1_IRQHandler)
    i.EXTI2_3_IRQHandler                     0x0800138c   Section        0  stm32l0xx_it.o(i.EXTI2_3_IRQHandler)
    i.EXTI4_15_IRQHandler                    0x080013b0   Section        0  stm32l0xx_it.o(i.EXTI4_15_IRQHandler)
    i.Error_Callback                         0x080013d4   Section        0  usart.o(i.Error_Callback)
    i.Error_Handler                          0x08001434   Section        0  main.o(i.Error_Handler)
    i.FLASH_SetErrorCode                     0x08001450   Section        0  stm32l0xx_hal_flash.o(i.FLASH_SetErrorCode)
    FLASH_SetErrorCode                       0x08001451   Thumb Code   134  stm32l0xx_hal_flash.o(i.FLASH_SetErrorCode)
    i.FLASH_WaitForLastOperation             0x080014e0   Section        0  stm32l0xx_hal_flash.o(i.FLASH_WaitForLastOperation)
    i.Get_SerialNum                          0x08001550   Section        0  main.o(i.Get_SerialNum)
    i.HAL_CRCEx_Polynomial_Set               0x08001588   Section        0  stm32l0xx_hal_crc_ex.o(i.HAL_CRCEx_Polynomial_Set)
    i.HAL_CRC_Calculate                      0x080015d8   Section        0  stm32l0xx_hal_crc.o(i.HAL_CRC_Calculate)
    i.HAL_CRC_DeInit                         0x08001622   Section        0  stm32l0xx_hal_crc.o(i.HAL_CRC_DeInit)
    i.HAL_CRC_Init                           0x08001658   Section        0  stm32l0xx_hal_crc.o(i.HAL_CRC_Init)
    i.HAL_CRC_MspDeInit                      0x080016d4   Section        0  crc.o(i.HAL_CRC_MspDeInit)
    i.HAL_CRC_MspInit                        0x080016f0   Section        0  crc.o(i.HAL_CRC_MspInit)
    i.HAL_Delay                              0x08001714   Section        0  stm32l0xx_hal.o(i.HAL_Delay)
    i.HAL_FLASHEx_DATAEEPROM_DisableFixedTimeProgram 0x08001738   Section        0  stm32l0xx_hal_flash_ex.o(i.HAL_FLASHEx_DATAEEPROM_DisableFixedTimeProgram)
    i.HAL_FLASHEx_DATAEEPROM_EnableFixedTimeProgram 0x08001748   Section        0  stm32l0xx_hal_flash_ex.o(i.HAL_FLASHEx_DATAEEPROM_EnableFixedTimeProgram)
    i.HAL_FLASHEx_DATAEEPROM_Erase           0x08001758   Section        0  stm32l0xx_hal_flash_ex.o(i.HAL_FLASHEx_DATAEEPROM_Erase)
    i.HAL_FLASHEx_DATAEEPROM_Lock            0x08001780   Section        0  stm32l0xx_hal_flash_ex.o(i.HAL_FLASHEx_DATAEEPROM_Lock)
    i.HAL_FLASHEx_DATAEEPROM_Program         0x08001794   Section        0  stm32l0xx_hal_flash_ex.o(i.HAL_FLASHEx_DATAEEPROM_Program)
    i.HAL_FLASHEx_DATAEEPROM_Unlock          0x080017e8   Section        0  stm32l0xx_hal_flash_ex.o(i.HAL_FLASHEx_DATAEEPROM_Unlock)
    i.HAL_GPIO_ReadPin                       0x0800181c   Section        0  stm32l0xx_hal_gpio.o(i.HAL_GPIO_ReadPin)
    i.HAL_GPIO_TogglePin                     0x08001826   Section        0  stm32l0xx_hal_gpio.o(i.HAL_GPIO_TogglePin)
    i.HAL_GPIO_WritePin                      0x08001836   Section        0  stm32l0xx_hal_gpio.o(i.HAL_GPIO_WritePin)
    i.HAL_GetTick                            0x08001844   Section        0  stm32l0xx_hal.o(i.HAL_GetTick)
    i.HAL_IncTick                            0x08001850   Section        0  stm32l0xx_hal.o(i.HAL_IncTick)
    i.HAL_Init                               0x08001860   Section        0  stm32l0xx_hal.o(i.HAL_Init)
    i.HAL_InitTick                           0x08001888   Section        0  stm32l0xx_hal.o(i.HAL_InitTick)
    i.HAL_MspInit                            0x080018cc   Section        0  stm32l0xx_hal_msp.o(i.HAL_MspInit)
    i.HAL_NVIC_EnableIRQ                     0x080018e4   Section        0  stm32l0xx_hal_cortex.o(i.HAL_NVIC_EnableIRQ)
    i.HAL_NVIC_SetPriority                   0x080018fc   Section        0  stm32l0xx_hal_cortex.o(i.HAL_NVIC_SetPriority)
    i.HAL_PWREx_EnableFastWakeUp             0x08001904   Section        0  stm32l0xx_hal_pwr_ex.o(i.HAL_PWREx_EnableFastWakeUp)
    i.HAL_PWREx_EnableUltraLowPower          0x08001914   Section        0  stm32l0xx_hal_pwr_ex.o(i.HAL_PWREx_EnableUltraLowPower)
    i.HAL_PWR_EnableBkUpAccess               0x08001924   Section        0  stm32l0xx_hal_pwr.o(i.HAL_PWR_EnableBkUpAccess)
    i.HAL_PWR_EnterSTOPMode                  0x08001934   Section        0  stm32l0xx_hal_pwr.o(i.HAL_PWR_EnterSTOPMode)
    i.HAL_RCCEx_PeriphCLKConfig              0x08001998   Section        0  stm32l0xx_hal_rcc_ex.o(i.HAL_RCCEx_PeriphCLKConfig)
    i.HAL_RCC_ClockConfig                    0x08001afc   Section        0  stm32l0xx_hal_rcc.o(i.HAL_RCC_ClockConfig)
    i.HAL_RCC_GetSysClockFreq                0x08001c98   Section        0  stm32l0xx_hal_rcc.o(i.HAL_RCC_GetSysClockFreq)
    i.HAL_RCC_OscConfig                      0x08001d10   Section        0  stm32l0xx_hal_rcc.o(i.HAL_RCC_OscConfig)
    i.HAL_RTCEx_SetWakeUpTimer_IT            0x08002138   Section        0  stm32l0xx_hal_rtc_ex.o(i.HAL_RTCEx_SetWakeUpTimer_IT)
    i.HAL_RTCEx_WakeUpTimerEventCallback     0x08002230   Section        0  rtc.o(i.HAL_RTCEx_WakeUpTimerEventCallback)
    i.HAL_RTCEx_WakeUpTimerIRQHandler        0x0800226c   Section        0  stm32l0xx_hal_rtc_ex.o(i.HAL_RTCEx_WakeUpTimerIRQHandler)
    i.HAL_RTC_Init                           0x080022a4   Section        0  stm32l0xx_hal_rtc.o(i.HAL_RTC_Init)
    i.HAL_RTC_MspInit                        0x08002360   Section        0  rtc.o(i.HAL_RTC_MspInit)
    i.HAL_RTC_WaitForSynchro                 0x08002390   Section        0  stm32l0xx_hal_rtc.o(i.HAL_RTC_WaitForSynchro)
    i.HAL_ResumeTick                         0x080023c4   Section        0  stm32l0xx_hal.o(i.HAL_ResumeTick)
    i.HAL_SYSTICK_Config                     0x080023d4   Section        0  stm32l0xx_hal_cortex.o(i.HAL_SYSTICK_Config)
    i.HAL_SuspendTick                        0x08002404   Section        0  stm32l0xx_hal.o(i.HAL_SuspendTick)
    i.HardFault_Handler                      0x08002414   Section        0  stm32l0xx_it.o(i.HardFault_Handler)
    i.LED_Blinking                           0x08002418   Section        0  main.o(i.LED_Blinking)
    i.LL_APB2_GRP1_EnableClock               0x08002430   Section        0  usart.o(i.LL_APB2_GRP1_EnableClock)
    LL_APB2_GRP1_EnableClock                 0x08002431   Thumb Code    18  usart.o(i.LL_APB2_GRP1_EnableClock)
    i.LL_EXTI_Init                           0x08002448   Section        0  stm32l0xx_ll_exti.o(i.LL_EXTI_Init)
    i.LL_EXTI_IsActiveFlag_0_31              0x080024e8   Section        0  stm32l0xx_it.o(i.LL_EXTI_IsActiveFlag_0_31)
    LL_EXTI_IsActiveFlag_0_31                0x080024e9   Thumb Code    16  stm32l0xx_it.o(i.LL_EXTI_IsActiveFlag_0_31)
    i.LL_GPIO_Init                           0x080024fc   Section        0  stm32l0xx_ll_gpio.o(i.LL_GPIO_Init)
    i.LL_GPIO_SetPinMode                     0x080025aa   Section        0  cc1101.o(i.LL_GPIO_SetPinMode)
    LL_GPIO_SetPinMode                       0x080025ab   Thumb Code    20  cc1101.o(i.LL_GPIO_SetPinMode)
    i.LL_GPIO_SetPinMode                     0x080025be   Section        0  gpio.o(i.LL_GPIO_SetPinMode)
    LL_GPIO_SetPinMode                       0x080025bf   Thumb Code    20  gpio.o(i.LL_GPIO_SetPinMode)
    i.LL_GPIO_SetPinPull                     0x080025d2   Section        0  cc1101.o(i.LL_GPIO_SetPinPull)
    LL_GPIO_SetPinPull                       0x080025d3   Thumb Code    20  cc1101.o(i.LL_GPIO_SetPinPull)
    i.LL_GPIO_SetPinPull                     0x080025e6   Section        0  gpio.o(i.LL_GPIO_SetPinPull)
    LL_GPIO_SetPinPull                       0x080025e7   Thumb Code    20  gpio.o(i.LL_GPIO_SetPinPull)
    i.LL_IOP_GRP1_EnableClock                0x080025fc   Section        0  cc1101.o(i.LL_IOP_GRP1_EnableClock)
    LL_IOP_GRP1_EnableClock                  0x080025fd   Thumb Code    18  cc1101.o(i.LL_IOP_GRP1_EnableClock)
    i.LL_IOP_GRP1_EnableClock                0x08002614   Section        0  gpio.o(i.LL_IOP_GRP1_EnableClock)
    LL_IOP_GRP1_EnableClock                  0x08002615   Thumb Code    18  gpio.o(i.LL_IOP_GRP1_EnableClock)
    i.LL_IOP_GRP1_EnableClock                0x0800262c   Section        0  spi.o(i.LL_IOP_GRP1_EnableClock)
    LL_IOP_GRP1_EnableClock                  0x0800262d   Thumb Code    18  spi.o(i.LL_IOP_GRP1_EnableClock)
    i.LL_IOP_GRP1_EnableClock                0x08002644   Section        0  usart.o(i.LL_IOP_GRP1_EnableClock)
    LL_IOP_GRP1_EnableClock                  0x08002645   Thumb Code    18  usart.o(i.LL_IOP_GRP1_EnableClock)
    i.LL_RCC_GetUSARTClockFreq               0x0800265c   Section        0  stm32l0xx_ll_rcc.o(i.LL_RCC_GetUSARTClockFreq)
    i.LL_RCC_GetUSARTClockSource             0x080026ec   Section        0  stm32l0xx_ll_rcc.o(i.LL_RCC_GetUSARTClockSource)
    LL_RCC_GetUSARTClockSource               0x080026ed   Thumb Code    12  stm32l0xx_ll_rcc.o(i.LL_RCC_GetUSARTClockSource)
    i.LL_RCC_HSI_IsReady                     0x080026fc   Section        0  stm32l0xx_ll_rcc.o(i.LL_RCC_HSI_IsReady)
    LL_RCC_HSI_IsReady                       0x080026fd   Thumb Code    10  stm32l0xx_ll_rcc.o(i.LL_RCC_HSI_IsReady)
    i.LL_RCC_IsActiveFlag_HSIDIV             0x0800270c   Section        0  stm32l0xx_ll_rcc.o(i.LL_RCC_IsActiveFlag_HSIDIV)
    LL_RCC_IsActiveFlag_HSIDIV               0x0800270d   Thumb Code    10  stm32l0xx_ll_rcc.o(i.LL_RCC_IsActiveFlag_HSIDIV)
    i.LL_RCC_LSE_IsReady                     0x0800271c   Section        0  stm32l0xx_ll_rcc.o(i.LL_RCC_LSE_IsReady)
    LL_RCC_LSE_IsReady                       0x0800271d   Thumb Code    10  stm32l0xx_ll_rcc.o(i.LL_RCC_LSE_IsReady)
    i.LL_SPI_DeInit                          0x0800272c   Section        0  stm32l0xx_ll_spi.o(i.LL_SPI_DeInit)
    i.LL_SPI_Init                            0x08002770   Section        0  stm32l0xx_ll_spi.o(i.LL_SPI_Init)
    i.LL_SYSCFG_SetEXTISource                0x080027dc   Section        0  cc1101.o(i.LL_SYSCFG_SetEXTISource)
    LL_SYSCFG_SetEXTISource                  0x080027dd   Thumb Code    28  cc1101.o(i.LL_SYSCFG_SetEXTISource)
    i.LL_SYSCFG_SetEXTISource                0x080027fc   Section        0  gpio.o(i.LL_SYSCFG_SetEXTISource)
    LL_SYSCFG_SetEXTISource                  0x080027fd   Thumb Code    28  gpio.o(i.LL_SYSCFG_SetEXTISource)
    i.LL_USART_DeInit                        0x0800281c   Section        0  stm32l0xx_ll_usart.o(i.LL_USART_DeInit)
    i.LL_USART_EnableIT_ERROR                0x08002864   Section        0  usart.o(i.LL_USART_EnableIT_ERROR)
    LL_USART_EnableIT_ERROR                  0x08002865   Thumb Code    24  usart.o(i.LL_USART_EnableIT_ERROR)
    i.LL_USART_EnableIT_RXNE                 0x0800287c   Section        0  usart.o(i.LL_USART_EnableIT_RXNE)
    LL_USART_EnableIT_RXNE                   0x0800287d   Thumb Code    24  usart.o(i.LL_USART_EnableIT_RXNE)
    i.LL_USART_Init                          0x08002894   Section        0  stm32l0xx_ll_usart.o(i.LL_USART_Init)
    i.MX_CRC_Init                            0x0800293c   Section        0  crc.o(i.MX_CRC_Init)
    i.MX_GPIO_Init                           0x0800296c   Section        0  gpio.o(i.MX_GPIO_Init)
    i.MX_IWDG_Init                           0x08002bc8   Section        0  iwdg.o(i.MX_IWDG_Init)
    i.MX_RTC_Init                            0x08002bfc   Section        0  rtc.o(i.MX_RTC_Init)
    i.MX_SPI1_DeInit                         0x08002c44   Section        0  spi.o(i.MX_SPI1_DeInit)
    i.MX_SPI1_Init                           0x08002cb4   Section        0  spi.o(i.MX_SPI1_Init)
    i.MX_SPI2_DeInit                         0x08002d84   Section        0  spi.o(i.MX_SPI2_DeInit)
    i.MX_SPI2_Init                           0x08002e04   Section        0  spi.o(i.MX_SPI2_Init)
    i.MX_USART1_UART_DeInit                  0x08002ecc   Section        0  usart.o(i.MX_USART1_UART_DeInit)
    i.MX_USART1_UART_Init                    0x08002f30   Section        0  usart.o(i.MX_USART1_UART_Init)
    i.NMI_Handler                            0x08002fe4   Section        0  stm32l0xx_it.o(i.NMI_Handler)
    i.PendSV_Handler                         0x08002fe6   Section        0  stm32l0xx_it.o(i.PendSV_Handler)
    i.RCC_GetHCLKClockFreq                   0x08002fe8   Section        0  stm32l0xx_ll_rcc.o(i.RCC_GetHCLKClockFreq)
    RCC_GetHCLKClockFreq                     0x08002fe9   Thumb Code    18  stm32l0xx_ll_rcc.o(i.RCC_GetHCLKClockFreq)
    i.RCC_GetPCLK1ClockFreq                  0x08003004   Section        0  stm32l0xx_ll_rcc.o(i.RCC_GetPCLK1ClockFreq)
    RCC_GetPCLK1ClockFreq                    0x08003005   Thumb Code    16  stm32l0xx_ll_rcc.o(i.RCC_GetPCLK1ClockFreq)
    i.RCC_GetPCLK2ClockFreq                  0x0800301c   Section        0  stm32l0xx_ll_rcc.o(i.RCC_GetPCLK2ClockFreq)
    RCC_GetPCLK2ClockFreq                    0x0800301d   Thumb Code    16  stm32l0xx_ll_rcc.o(i.RCC_GetPCLK2ClockFreq)
    i.RCC_GetSystemClockFreq                 0x08003034   Section        0  stm32l0xx_ll_rcc.o(i.RCC_GetSystemClockFreq)
    RCC_GetSystemClockFreq                   0x08003035   Thumb Code   116  stm32l0xx_ll_rcc.o(i.RCC_GetSystemClockFreq)
    i.RFIDInitial                            0x080030b8   Section        0  cc1101.o(i.RFIDInitial)
    i.RNG_Gen                                0x08003100   Section        0  rand_bytes_gen.o(i.RNG_Gen)
    i.RNG_Init                               0x0800313c   Section        0  rand_bytes_gen.o(i.RNG_Init)
    i.RNGfree                                0x080031b0   Section        0  crypto.o(i.RNGfree)
    i.RNGgenBytes                            0x080031e4   Section        0  crypto.o(i.RNGgenBytes)
    i.RNGinit                                0x0800328c   Section        0  crypto.o(i.RNGinit)
    i.RTC_EnterInitMode                      0x08003364   Section        0  stm32l0xx_hal_rtc.o(i.RTC_EnterInitMode)
    i.RTC_IRQHandler                         0x0800339c   Section        0  stm32l0xx_it.o(i.RTC_IRQHandler)
    i.SPI_ExchangeByte                       0x080033ac   Section        0  spi.o(i.SPI_ExchangeByte)
    i.SVC_Handler                            0x080033c2   Section        0  stm32l0xx_it.o(i.SVC_Handler)
    i.Show_Message                           0x080033c4   Section        0  main.o(i.Show_Message)
    i.SpiFunction                            0x08003440   Section        0  spi.o(i.SpiFunction)
    i.SysTick_Handler                        0x08003474   Section        0  stm32l0xx_it.o(i.SysTick_Handler)
    i.SystemClock_Config                     0x0800347c   Section        0  main.o(i.SystemClock_Config)
    i.SystemInit                             0x0800351c   Section        0  system_stm32l0xx.o(i.SystemInit)
    i.System_Initial                         0x08003570   Section        0  main.o(i.System_Initial)
    i.USART1_IRQHandler                      0x08003610   Section        0  stm32l0xx_it.o(i.USART1_IRQHandler)
    i.USART_CharReception_Callback           0x08003634   Section        0  usart.o(i.USART_CharReception_Callback)
    i.__ARM_common_ll_muluu                  0x0800366c   Section        0  crypto.o(i.__ARM_common_ll_muluu)
    i.__NVIC_DisableIRQ                      0x080036a0   Section        0  cc1101.o(i.__NVIC_DisableIRQ)
    __NVIC_DisableIRQ                        0x080036a1   Thumb Code    26  cc1101.o(i.__NVIC_DisableIRQ)
    i.__NVIC_DisableIRQ                      0x080036c0   Section        0  usart.o(i.__NVIC_DisableIRQ)
    __NVIC_DisableIRQ                        0x080036c1   Thumb Code    26  usart.o(i.__NVIC_DisableIRQ)
    i.__NVIC_EnableIRQ                       0x080036e0   Section        0  cc1101.o(i.__NVIC_EnableIRQ)
    __NVIC_EnableIRQ                         0x080036e1   Thumb Code    18  cc1101.o(i.__NVIC_EnableIRQ)
    i.__NVIC_EnableIRQ                       0x080036f8   Section        0  gpio.o(i.__NVIC_EnableIRQ)
    __NVIC_EnableIRQ                         0x080036f9   Thumb Code    18  gpio.o(i.__NVIC_EnableIRQ)
    i.__NVIC_SetPriority                     0x08003710   Section        0  cc1101.o(i.__NVIC_SetPriority)
    __NVIC_SetPriority                       0x08003711   Thumb Code    60  cc1101.o(i.__NVIC_SetPriority)
    i.__NVIC_SetPriority                     0x08003754   Section        0  gpio.o(i.__NVIC_SetPriority)
    __NVIC_SetPriority                       0x08003755   Thumb Code    60  gpio.o(i.__NVIC_SetPriority)
    i.__NVIC_SetPriority                     0x08003798   Section        0  stm32l0xx_hal_cortex.o(i.__NVIC_SetPriority)
    __NVIC_SetPriority                       0x08003799   Thumb Code    60  stm32l0xx_hal_cortex.o(i.__NVIC_SetPriority)
    i.__scatterload_copy                     0x080037dc   Section       14  handlers.o(i.__scatterload_copy)
    i.__scatterload_null                     0x080037ea   Section        2  handlers.o(i.__scatterload_null)
    i.__scatterload_zeroinit                 0x080037ec   Section       14  handlers.o(i.__scatterload_zeroinit)
    i.crl_DRBG_AES128_Generate               0x080037fc   Section        0  crypto.o(i.crl_DRBG_AES128_Generate)
    i.main                                   0x08003a18   Section        0  main.o(i.main)
    .constdata                               0x08003bd8   Section       94  cc1101.o(.constdata)
    CC1101InitData                           0x08003bd8   Data          94  cc1101.o(.constdata)
    .constdata                               0x08003c36   Section       25  system_stm32l0xx.o(.constdata)
    .constdata                               0x08003c4f   Section        8  system_stm32l0xx.o(.constdata)
    .constdata                               0x08003c58   Section     7012  crypto.o(.constdata)
    table_reduction8                         0x08004684   Data         512  crypto.o(.constdata)
    table_reduction4                         0x08004884   Data          32  crypto.o(.constdata)
    sha512_K                                 0x080051a8   Data         640  crypto.o(.constdata)
    tau                                      0x08005438   Data          16  crypto.o(.constdata)
    m                                        0x08005448   Data          32  crypto.o(.constdata)
    mu                                       0x08005468   Data          36  crypto.o(.constdata)
    ge25519_ecd                              0x0800548c   Data          32  crypto.o(.constdata)
    ge25519_ec2d                             0x0800552c   Data          32  crypto.o(.constdata)
    ge25519_sqrtm1                           0x0800554c   Data          32  crypto.o(.constdata)
    pad                                      0x080055dc   Data          64  crypto.o(.constdata)
    .data                                    0x20000000   Section        4  adxl362.o(.data)
    .data                                    0x20000004   Section       10  cc1101.o(.data)
    .data                                    0x20000010   Section       50  rand_bytes_gen.o(.data)
    .data                                    0x20000042   Section        4  main.o(.data)
    .data                                    0x20000046   Section        3  rtc.o(.data)
    .data                                    0x2000004c   Section       12  stm32l0xx_hal.o(.data)
    .data                                    0x20000058   Section        4  system_stm32l0xx.o(.data)
    .data                                    0x2000005c   Section        4  rand.o(.data)
    _rand_state                              0x2000005c   Data           4  rand.o(.data)
    .bss                                     0x20000060   Section     2204  adxl362.o(.bss)
    .bss                                     0x200008fc   Section      396  cc1101.o(.bss)
    .bss                                     0x20000a88   Section      100  rand_bytes_gen.o(.bss)
    .bss                                     0x20000aec   Section       16  main.o(.bss)
    .bss                                     0x20000afc   Section       36  crc.o(.bss)
    .bss                                     0x20000b20   Section       36  rtc.o(.bss)
    .bss                                     0x20000b44   Section       26  usart.o(.bss)
    .bss                                     0x20000b60   Section       24  stm32l0xx_hal_flash.o(.bss)
    STACK                                    0x20000b78   Section     1024  startup_stm32l051xx.o(STACK)

    Global Symbols

    Symbol Name                              Value     Ov Type        Size  Object(Section)

    BuildAttributes$$THM_ISAv3M$S$PE$A:L22$X:L11$S22$IEEE1$IW$USESV6$~STKCKD$USESV7$~SHL$OTIME$EBA8$MICROLIB$REQ8$PRES8$EABIv2 0x00000000   Number         0  anon$$obj.o ABSOLUTE
    __ARM_use_no_argv                        0x00000000   Number         0  main.o ABSOLUTE
    __cpp_initialize__aeabi_                  - Undefined Weak Reference
    __cxa_finalize                            - Undefined Weak Reference
    __decompress                              - Undefined Weak Reference
    _clock_init                               - Undefined Weak Reference
    _microlib_exit                            - Undefined Weak Reference
    __Vectors_Size                           0x000000c0   Number         0  startup_stm32l051xx.o ABSOLUTE
    __Vectors                                0x08000000   Data           4  startup_stm32l051xx.o(RESET)
    __Vectors_End                            0x080000c0   Data           0  startup_stm32l051xx.o(RESET)
    __main                                   0x080000c1   Thumb Code     0  entry.o(.ARM.Collect$$$$00000000)
    _main_stk                                0x080000c1   Thumb Code     0  entry2.o(.ARM.Collect$$$$00000001)
    _main_scatterload                        0x080000c5   Thumb Code     0  entry5.o(.ARM.Collect$$$$00000004)
    __main_after_scatterload                 0x080000c9   Thumb Code     0  entry5.o(.ARM.Collect$$$$00000004)
    _main_clock                              0x080000c9   Thumb Code     0  entry7b.o(.ARM.Collect$$$$00000008)
    _main_cpp_init                           0x080000c9   Thumb Code     0  entry8b.o(.ARM.Collect$$$$0000000A)
    _main_init                               0x080000c9   Thumb Code     0  entry9a.o(.ARM.Collect$$$$0000000B)
    __rt_final_cpp                           0x080000d1   Thumb Code     0  entry10a.o(.ARM.Collect$$$$0000000D)
    __rt_final_exit                          0x080000d1   Thumb Code     0  entry11a.o(.ARM.Collect$$$$0000000F)
    Reset_Handler                            0x080000d5   Thumb Code     8  startup_stm32l051xx.o(.text)
    ADC1_COMP_IRQHandler                     0x080000e7   Thumb Code     0  startup_stm32l051xx.o(.text)
    DMA1_Channel1_IRQHandler                 0x080000e7   Thumb Code     0  startup_stm32l051xx.o(.text)
    DMA1_Channel2_3_IRQHandler               0x080000e7   Thumb Code     0  startup_stm32l051xx.o(.text)
    DMA1_Channel4_5_6_7_IRQHandler           0x080000e7   Thumb Code     0  startup_stm32l051xx.o(.text)
    FLASH_IRQHandler                         0x080000e7   Thumb Code     0  startup_stm32l051xx.o(.text)
    I2C1_IRQHandler                          0x080000e7   Thumb Code     0  startup_stm32l051xx.o(.text)
    I2C2_IRQHandler                          0x080000e7   Thumb Code     0  startup_stm32l051xx.o(.text)
    LPTIM1_IRQHandler                        0x080000e7   Thumb Code     0  startup_stm32l051xx.o(.text)
    LPUART1_IRQHandler                       0x080000e7   Thumb Code     0  startup_stm32l051xx.o(.text)
    PVD_IRQHandler                           0x080000e7   Thumb Code     0  startup_stm32l051xx.o(.text)
    RCC_IRQHandler                           0x080000e7   Thumb Code     0  startup_stm32l051xx.o(.text)
    SPI1_IRQHandler                          0x080000e7   Thumb Code     0  startup_stm32l051xx.o(.text)
    SPI2_IRQHandler                          0x080000e7   Thumb Code     0  startup_stm32l051xx.o(.text)
    TIM21_IRQHandler                         0x080000e7   Thumb Code     0  startup_stm32l051xx.o(.text)
    TIM22_IRQHandler                         0x080000e7   Thumb Code     0  startup_stm32l051xx.o(.text)
    TIM2_IRQHandler                          0x080000e7   Thumb Code     0  startup_stm32l051xx.o(.text)
    TIM6_IRQHandler                          0x080000e7   Thumb Code     0  startup_stm32l051xx.o(.text)
    USART2_IRQHandler                        0x080000e7   Thumb Code     0  startup_stm32l051xx.o(.text)
    WWDG_IRQHandler                          0x080000e7   Thumb Code     0  startup_stm32l051xx.o(.text)
    __aeabi_uidiv                            0x080000f1   Thumb Code     0  uidiv.o(.text)
    __aeabi_uidivmod                         0x080000f1   Thumb Code    44  uidiv.o(.text)
    __aeabi_idiv                             0x0800011d   Thumb Code     0  idiv.o(.text)
    __aeabi_idivmod                          0x0800011d   Thumb Code    40  idiv.o(.text)
    __aeabi_uldivmod                         0x08000145   Thumb Code    96  uldiv.o(.text)
    rand                                     0x080001a5   Thumb Code    18  rand.o(.text)
    srand                                    0x080001b7   Thumb Code     6  rand.o(.text)
    ___aeabi_memcpy8$move                    0x080001c9   Thumb Code     0  memmovea.o(.text)
    __aeabi_memcpy                           0x080001c9   Thumb Code    64  memmovea.o(.text)
    __aeabi_memcpy4                          0x080001c9   Thumb Code     0  memmovea.o(.text)
    __aeabi_memmove                          0x080001c9   Thumb Code     0  memmovea.o(.text)
    __aeabi_memmove4                         0x080001c9   Thumb Code     0  memmovea.o(.text)
    __aeabi_memmove8                         0x080001c9   Thumb Code     0  memmovea.o(.text)
    __aeabi_memset                           0x08000209   Thumb Code    14  memseta.o(.text)
    __aeabi_memset4                          0x08000209   Thumb Code     0  memseta.o(.text)
    __aeabi_memset8                          0x08000209   Thumb Code     0  memseta.o(.text)
    __aeabi_memclr                           0x08000217   Thumb Code     4  memseta.o(.text)
    __aeabi_memclr4                          0x08000217   Thumb Code     0  memseta.o(.text)
    __aeabi_memclr8                          0x08000217   Thumb Code     0  memseta.o(.text)
    _memset$wrapper                          0x0800021b   Thumb Code    18  memseta.o(.text)
    __aeabi_uread4                           0x0800022d   Thumb Code    20  uread4.o(.text)
    __rt_uread4                              0x0800022d   Thumb Code     0  uread4.o(.text)
    _uread4                                  0x0800022d   Thumb Code     0  uread4.o(.text)
    __aeabi_llsl                             0x08000241   Thumb Code    32  llshl.o(.text)
    _ll_shift_l                              0x08000241   Thumb Code     0  llshl.o(.text)
    __aeabi_llsr                             0x08000261   Thumb Code    34  llushr.o(.text)
    _ll_ushift_r                             0x08000261   Thumb Code     0  llushr.o(.text)
    __scatterload                            0x08000285   Thumb Code    28  init.o(.text)
    __scatterload_rt2                        0x08000285   Thumb Code     0  init.o(.text)
    ADXL362FifoProcess                       0x080002a9   Thumb Code   456  adxl362.o(i.ADXL362FifoProcess)
    ADXL362FifoRead                          0x08000491   Thumb Code    56  adxl362.o(i.ADXL362FifoRead)
    ADXL362RegisterRead                      0x080004d1   Thumb Code    62  adxl362.o(i.ADXL362RegisterRead)
    ADXL362RegisterWrite                     0x08000519   Thumb Code    60  adxl362.o(i.ADXL362RegisterWrite)
    ADXL362_Init                             0x0800055d   Thumb Code   374  adxl362.o(i.ADXL362_Init)
    AES_general_SW_enc                       0x080006dd   Thumb Code   728  crypto.o(i.AES_general_SW_enc)
    CC1101ClrTXBuff                          0x08000b31   Thumb Code    16  cc1101.o(i.CC1101ClrTXBuff)
    CC1101Init                               0x08000b41   Thumb Code    64  cc1101.o(i.CC1101Init)
    CC1101ReadReg                            0x08000b89   Thumb Code    54  cc1101.o(i.CC1101ReadReg)
    CC1101Reset                              0x08000bc5   Thumb Code    90  cc1101.o(i.CC1101Reset)
    CC1101SendHandler                        0x08000c21   Thumb Code   230  cc1101.o(i.CC1101SendHandler)
    CC1101SendPacket                         0x08000d25   Thumb Code   216  cc1101.o(i.CC1101SendPacket)
    CC1101SetAddress                         0x08000e01   Thumb Code    20  cc1101.o(i.CC1101SetAddress)
    CC1101SetSYNC                            0x08000e15   Thumb Code    22  cc1101.o(i.CC1101SetSYNC)
    CC1101SetTRMode                          0x08000e2b   Thumb Code    54  cc1101.o(i.CC1101SetTRMode)
    CC1101SetWORMode                         0x08000e61   Thumb Code    38  cc1101.o(i.CC1101SetWORMode)
    CC1101WORInit                            0x08000e87   Thumb Code    44  cc1101.o(i.CC1101WORInit)
    CC1101WriteCmd                           0x08000eb5   Thumb Code    38  cc1101.o(i.CC1101WriteCmd)
    CC1101WriteMultiReg                      0x08000ee1   Thumb Code    68  cc1101.o(i.CC1101WriteMultiReg)
    CC1101WriteReg                           0x08000f29   Thumb Code    50  cc1101.o(i.CC1101WriteReg)
    CC1101_GDO_DeInit                        0x08000f61   Thumb Code    74  cc1101.o(i.CC1101_GDO_DeInit)
    CC1101_GDO_Init                          0x08000fab   Thumb Code   144  cc1101.o(i.CC1101_GDO_Init)
    DATAEEPROM_Program                       0x080010f5   Thumb Code    62  main.o(i.DATAEEPROM_Program)
    EXTI0_1_IRQHandler                       0x08001369   Thumb Code    26  stm32l0xx_it.o(i.EXTI0_1_IRQHandler)
    EXTI2_3_IRQHandler                       0x0800138d   Thumb Code    26  stm32l0xx_it.o(i.EXTI2_3_IRQHandler)
    EXTI4_15_IRQHandler                      0x080013b1   Thumb Code    26  stm32l0xx_it.o(i.EXTI4_15_IRQHandler)
    Error_Callback                           0x080013d5   Thumb Code    86  usart.o(i.Error_Callback)
    Error_Handler                            0x08001435   Thumb Code    24  main.o(i.Error_Handler)
    FLASH_WaitForLastOperation               0x080014e1   Thumb Code   106  stm32l0xx_hal_flash.o(i.FLASH_WaitForLastOperation)
    Get_SerialNum                            0x08001551   Thumb Code    46  main.o(i.Get_SerialNum)
    HAL_CRCEx_Polynomial_Set                 0x08001589   Thumb Code    80  stm32l0xx_hal_crc_ex.o(i.HAL_CRCEx_Polynomial_Set)
    HAL_CRC_Calculate                        0x080015d9   Thumb Code    74  stm32l0xx_hal_crc.o(i.HAL_CRC_Calculate)
    HAL_CRC_DeInit                           0x08001623   Thumb Code    52  stm32l0xx_hal_crc.o(i.HAL_CRC_DeInit)
    HAL_CRC_Init                             0x08001659   Thumb Code   118  stm32l0xx_hal_crc.o(i.HAL_CRC_Init)
    HAL_CRC_MspDeInit                        0x080016d5   Thumb Code    20  crc.o(i.HAL_CRC_MspDeInit)
    HAL_CRC_MspInit                          0x080016f1   Thumb Code    28  crc.o(i.HAL_CRC_MspInit)
    HAL_Delay                                0x08001715   Thumb Code    32  stm32l0xx_hal.o(i.HAL_Delay)
    HAL_FLASHEx_DATAEEPROM_DisableFixedTimeProgram 0x08001739   Thumb Code    12  stm32l0xx_hal_flash_ex.o(i.HAL_FLASHEx_DATAEEPROM_DisableFixedTimeProgram)
    HAL_FLASHEx_DATAEEPROM_EnableFixedTimeProgram 0x08001749   Thumb Code    12  stm32l0xx_hal_flash_ex.o(i.HAL_FLASHEx_DATAEEPROM_EnableFixedTimeProgram)
    HAL_FLASHEx_DATAEEPROM_Erase             0x08001759   Thumb Code    30  stm32l0xx_hal_flash_ex.o(i.HAL_FLASHEx_DATAEEPROM_Erase)
    HAL_FLASHEx_DATAEEPROM_Lock              0x08001781   Thumb Code    14  stm32l0xx_hal_flash_ex.o(i.HAL_FLASHEx_DATAEEPROM_Lock)
    HAL_FLASHEx_DATAEEPROM_Program           0x08001795   Thumb Code    76  stm32l0xx_hal_flash_ex.o(i.HAL_FLASHEx_DATAEEPROM_Program)
    HAL_FLASHEx_DATAEEPROM_Unlock            0x080017e9   Thumb Code    40  stm32l0xx_hal_flash_ex.o(i.HAL_FLASHEx_DATAEEPROM_Unlock)
    HAL_GPIO_ReadPin                         0x0800181d   Thumb Code    10  stm32l0xx_hal_gpio.o(i.HAL_GPIO_ReadPin)
    HAL_GPIO_TogglePin                       0x08001827   Thumb Code    16  stm32l0xx_hal_gpio.o(i.HAL_GPIO_TogglePin)
    HAL_GPIO_WritePin                        0x08001837   Thumb Code    12  stm32l0xx_hal_gpio.o(i.HAL_GPIO_WritePin)
    HAL_GetTick                              0x08001845   Thumb Code     6  stm32l0xx_hal.o(i.HAL_GetTick)
    HAL_IncTick                              0x08001851   Thumb Code    12  stm32l0xx_hal.o(i.HAL_IncTick)
    HAL_Init                                 0x08001861   Thumb Code    36  stm32l0xx_hal.o(i.HAL_Init)
    HAL_InitTick                             0x08001889   Thumb Code    58  stm32l0xx_hal.o(i.HAL_InitTick)
    HAL_MspInit                              0x080018cd   Thumb Code    20  stm32l0xx_hal_msp.o(i.HAL_MspInit)
    HAL_NVIC_EnableIRQ                       0x080018e5   Thumb Code    18  stm32l0xx_hal_cortex.o(i.HAL_NVIC_EnableIRQ)
    HAL_NVIC_SetPriority                     0x080018fd   Thumb Code     8  stm32l0xx_hal_cortex.o(i.HAL_NVIC_SetPriority)
    HAL_PWREx_EnableFastWakeUp               0x08001905   Thumb Code    12  stm32l0xx_hal_pwr_ex.o(i.HAL_PWREx_EnableFastWakeUp)
    HAL_PWREx_EnableUltraLowPower            0x08001915   Thumb Code    12  stm32l0xx_hal_pwr_ex.o(i.HAL_PWREx_EnableUltraLowPower)
    HAL_PWR_EnableBkUpAccess                 0x08001925   Thumb Code    12  stm32l0xx_hal_pwr.o(i.HAL_PWR_EnableBkUpAccess)
    HAL_PWR_EnterSTOPMode                    0x08001935   Thumb Code    88  stm32l0xx_hal_pwr.o(i.HAL_PWR_EnterSTOPMode)
    HAL_RCCEx_PeriphCLKConfig                0x08001999   Thumb Code   342  stm32l0xx_hal_rcc_ex.o(i.HAL_RCCEx_PeriphCLKConfig)
    HAL_RCC_ClockConfig                      0x08001afd   Thumb Code   386  stm32l0xx_hal_rcc.o(i.HAL_RCC_ClockConfig)
    HAL_RCC_GetSysClockFreq                  0x08001c99   Thumb Code   108  stm32l0xx_hal_rcc.o(i.HAL_RCC_GetSysClockFreq)
    HAL_RCC_OscConfig                        0x08001d11   Thumb Code  1062  stm32l0xx_hal_rcc.o(i.HAL_RCC_OscConfig)
    HAL_RTCEx_SetWakeUpTimer_IT              0x08002139   Thumb Code   238  stm32l0xx_hal_rtc_ex.o(i.HAL_RTCEx_SetWakeUpTimer_IT)
    HAL_RTCEx_WakeUpTimerEventCallback       0x08002231   Thumb Code    50  rtc.o(i.HAL_RTCEx_WakeUpTimerEventCallback)
    HAL_RTCEx_WakeUpTimerIRQHandler          0x0800226d   Thumb Code    48  stm32l0xx_hal_rtc_ex.o(i.HAL_RTCEx_WakeUpTimerIRQHandler)
    HAL_RTC_Init                             0x080022a5   Thumb Code   184  stm32l0xx_hal_rtc.o(i.HAL_RTC_Init)
    HAL_RTC_MspInit                          0x08002361   Thumb Code    40  rtc.o(i.HAL_RTC_MspInit)
    HAL_RTC_WaitForSynchro                   0x08002391   Thumb Code    52  stm32l0xx_hal_rtc.o(i.HAL_RTC_WaitForSynchro)
    HAL_ResumeTick                           0x080023c5   Thumb Code    12  stm32l0xx_hal.o(i.HAL_ResumeTick)
    HAL_SYSTICK_Config                       0x080023d5   Thumb Code    38  stm32l0xx_hal_cortex.o(i.HAL_SYSTICK_Config)
    HAL_SuspendTick                          0x08002405   Thumb Code    12  stm32l0xx_hal.o(i.HAL_SuspendTick)
    HardFault_Handler                        0x08002415   Thumb Code     2  stm32l0xx_it.o(i.HardFault_Handler)
    LED_Blinking                             0x08002419   Thumb Code    20  main.o(i.LED_Blinking)
    LL_EXTI_Init                             0x08002449   Thumb Code   156  stm32l0xx_ll_exti.o(i.LL_EXTI_Init)
    LL_GPIO_Init                             0x080024fd   Thumb Code   174  stm32l0xx_ll_gpio.o(i.LL_GPIO_Init)
    LL_RCC_GetUSARTClockFreq                 0x0800265d   Thumb Code   132  stm32l0xx_ll_rcc.o(i.LL_RCC_GetUSARTClockFreq)
    LL_SPI_DeInit                            0x0800272d   Thumb Code    56  stm32l0xx_ll_spi.o(i.LL_SPI_DeInit)
    LL_SPI_Init                              0x08002771   Thumb Code   102  stm32l0xx_ll_spi.o(i.LL_SPI_Init)
    LL_USART_DeInit                          0x0800281d   Thumb Code    58  stm32l0xx_ll_usart.o(i.LL_USART_DeInit)
    LL_USART_Init                            0x08002895   Thumb Code   150  stm32l0xx_ll_usart.o(i.LL_USART_Init)
    MX_CRC_Init                              0x0800293d   Thumb Code    40  crc.o(i.MX_CRC_Init)
    MX_GPIO_Init                             0x0800296d   Thumb Code   596  gpio.o(i.MX_GPIO_Init)
    MX_IWDG_Init                             0x08002bc9   Thumb Code    30  iwdg.o(i.MX_IWDG_Init)
    MX_RTC_Init                              0x08002bfd   Thumb Code    62  rtc.o(i.MX_RTC_Init)
    MX_SPI1_DeInit                           0x08002c45   Thumb Code   102  spi.o(i.MX_SPI1_DeInit)
    MX_SPI1_Init                             0x08002cb5   Thumb Code   198  spi.o(i.MX_SPI1_Init)
    MX_SPI2_DeInit                           0x08002d85   Thumb Code   116  spi.o(i.MX_SPI2_DeInit)
    MX_SPI2_Init                             0x08002e05   Thumb Code   188  spi.o(i.MX_SPI2_Init)
    MX_USART1_UART_DeInit                    0x08002ecd   Thumb Code    94  usart.o(i.MX_USART1_UART_DeInit)
    MX_USART1_UART_Init                      0x08002f31   Thumb Code   168  usart.o(i.MX_USART1_UART_Init)
    NMI_Handler                              0x08002fe5   Thumb Code     2  stm32l0xx_it.o(i.NMI_Handler)
    PendSV_Handler                           0x08002fe7   Thumb Code     2  stm32l0xx_it.o(i.PendSV_Handler)
    RFIDInitial                              0x080030b9   Thumb Code    68  cc1101.o(i.RFIDInitial)
    RNG_Gen                                  0x08003101   Thumb Code    50  rand_bytes_gen.o(i.RNG_Gen)
    RNG_Init                                 0x0800313d   Thumb Code   102  rand_bytes_gen.o(i.RNG_Init)
    RNGfree                                  0x080031b1   Thumb Code    42  crypto.o(i.RNGfree)
    RNGgenBytes                              0x080031e5   Thumb Code   154  crypto.o(i.RNGgenBytes)
    RNGinit                                  0x0800328d   Thumb Code   194  crypto.o(i.RNGinit)
    RTC_EnterInitMode                        0x08003365   Thumb Code    56  stm32l0xx_hal_rtc.o(i.RTC_EnterInitMode)
    RTC_IRQHandler                           0x0800339d   Thumb Code    10  stm32l0xx_it.o(i.RTC_IRQHandler)
    SPI_ExchangeByte                         0x080033ad   Thumb Code    22  spi.o(i.SPI_ExchangeByte)
    SVC_Handler                              0x080033c3   Thumb Code     2  stm32l0xx_it.o(i.SVC_Handler)
    Show_Message                             0x080033c5   Thumb Code   120  main.o(i.Show_Message)
    SpiFunction                              0x08003441   Thumb Code    52  spi.o(i.SpiFunction)
    SysTick_Handler                          0x08003475   Thumb Code     8  stm32l0xx_it.o(i.SysTick_Handler)
    SystemClock_Config                       0x0800347d   Thumb Code   152  main.o(i.SystemClock_Config)
    SystemInit                               0x0800351d   Thumb Code    66  system_stm32l0xx.o(i.SystemInit)
    System_Initial                           0x08003571   Thumb Code   136  main.o(i.System_Initial)
    USART1_IRQHandler                        0x08003611   Thumb Code    32  stm32l0xx_it.o(i.USART1_IRQHandler)
    USART_CharReception_Callback             0x08003635   Thumb Code    46  usart.o(i.USART_CharReception_Callback)
    __ARM_common_ll_muluu                    0x0800366d   Thumb Code    50  crypto.o(i.__ARM_common_ll_muluu)
    __scatterload_copy                       0x080037dd   Thumb Code    14  handlers.o(i.__scatterload_copy)
    __scatterload_null                       0x080037eb   Thumb Code     2  handlers.o(i.__scatterload_null)
    __scatterload_zeroinit                   0x080037ed   Thumb Code    14  handlers.o(i.__scatterload_zeroinit)
    crl_DRBG_AES128_Generate                 0x080037fd   Thumb Code   526  crypto.o(i.crl_DRBG_AES128_Generate)
    main                                     0x08003a19   Thumb Code   406  main.o(i.main)
    AHBPrescTable                            0x08003c36   Data          16  system_stm32l0xx.o(.constdata)
    PLLMulTable                              0x08003c46   Data           9  system_stm32l0xx.o(.constdata)
    APBPrescTable                            0x08003c4f   Data           8  system_stm32l0xx.o(.constdata)
    Sbox                                     0x08003c5c   Data         256  crypto.o(.constdata)
    InvSbox                                  0x08003d5c   Data         256  crypto.o(.constdata)
    rcon                                     0x08003e5c   Data          40  crypto.o(.constdata)
    enc_table                                0x08003e84   Data        1024  crypto.o(.constdata)
    dec_table                                0x08004284   Data        1024  crypto.o(.constdata)
    SP1                                      0x080048a4   Data         256  crypto.o(.constdata)
    SP2                                      0x080049a4   Data         256  crypto.o(.constdata)
    SP3                                      0x08004aa4   Data         256  crypto.o(.constdata)
    SP4                                      0x08004ba4   Data         256  crypto.o(.constdata)
    SP5                                      0x08004ca4   Data         256  crypto.o(.constdata)
    SP6                                      0x08004da4   Data         256  crypto.o(.constdata)
    SP7                                      0x08004ea4   Data         256  crypto.o(.constdata)
    SP8                                      0x08004fa4   Data         256  crypto.o(.constdata)
    K256                                     0x080050a4   Data         256  crypto.o(.constdata)
    sigma                                    0x08005428   Data          16  crypto.o(.constdata)
    ge25519_base                             0x080054ac   Data         128  crypto.o(.constdata)
    Region$$Table$$Base                      0x080057bc   Number         0  anon$$obj.o(Region$$Table)
    Region$$Table$$Limit                     0x080057dc   Number         0  anon$$obj.o(Region$$Table)
    yIngestionAverageOld                     0x20000000   Data           4  adxl362.o(.data)
    rxCatch                                  0x20000004   Data           1  cc1101.o(.data)
    txFiFoUnFlow                             0x20000005   Data           1  cc1101.o(.data)
    PaTabel                                  0x20000006   Data           8  cc1101.o(.data)
    status                                   0x20000010   Data           4  rand_bytes_gen.o(.data)
    nonce                                    0x20000014   Data           6  rand_bytes_gen.o(.data)
    personalization_String                   0x2000001a   Data           8  rand_bytes_gen.o(.data)
    entropy_data                             0x20000022   Data          32  rand_bytes_gen.o(.data)
    ErrorIndex                               0x20000042   Data           1  main.o(.data)
    delayRand                                0x20000043   Data           1  main.o(.data)
    resetCnt                                 0x20000044   Data           2  main.o(.data)
    rtc                                      0x20000046   Data           3  rtc.o(.data)
    uwTickFreq                               0x2000004c   Data           1  stm32l0xx_hal.o(.data)
    uwTickPrio                               0x20000050   Data           4  stm32l0xx_hal.o(.data)
    uwTick                                   0x20000054   Data           4  stm32l0xx_hal.o(.data)
    SystemCoreClock                          0x20000058   Data           4  system_stm32l0xx.o(.data)
    step                                     0x20000060   Data         150  adxl362.o(.bss)
    fifo                                     0x200000f6   Data        1024  adxl362.o(.bss)
    yAxis                                    0x200004f6   Data         340  adxl362.o(.bss)
    yStepAverage                             0x2000064a   Data         336  adxl362.o(.bss)
    yStepFilter                              0x2000079a   Data         336  adxl362.o(.bss)
    yIngestionAverage                        0x200008ea   Data          18  adxl362.o(.bss)
    cc1101                                   0x200008fc   Data         396  cc1101.o(.bss)
    RandomString                             0x20000a88   Data          32  rand_bytes_gen.o(.bss)
    RNGstate                                 0x20000aa8   Data          44  rand_bytes_gen.o(.bss)
    RNGinit_st                               0x20000ad4   Data          24  rand_bytes_gen.o(.bss)
    device                                   0x20000aec   Data          16  main.o(.bss)
    hcrc                                     0x20000afc   Data          36  crc.o(.bss)
    hrtc                                     0x20000b20   Data          36  rtc.o(.bss)
    usart                                    0x20000b44   Data          26  usart.o(.bss)
    pFlash                                   0x20000b60   Data          24  stm32l0xx_hal_flash.o(.bss)
    __initial_sp                             0x20000f78   Data           0  startup_stm32l051xx.o(STACK)



==============================================================================

Memory Map of the image

  Image Entry point : 0x080000c1

  Load Region LR_IROM1 (Base: 0x08000000, Size: 0x0000583c, Max: 0x00010000, ABSOLUTE)

    Execution Region ER_IROM1 (Exec base: 0x08000000, Load base: 0x08000000, Size: 0x000057dc, Max: 0x00010000, ABSOLUTE)

    Exec Addr    Load Addr    Size         Type   Attr      Idx    E Section Name        Object

    0x08000000   0x08000000   0x000000c0   Data   RO            3    RESET               startup_stm32l051xx.o
    0x080000c0   0x080000c0   0x00000000   Code   RO         4468  * .ARM.Collect$$$$00000000  mc_p.l(entry.o)
    0x080000c0   0x080000c0   0x00000004   Code   RO         4494    .ARM.Collect$$$$00000001  mc_p.l(entry2.o)
    0x080000c4   0x080000c4   0x00000004   Code   RO         4497    .ARM.Collect$$$$00000004  mc_p.l(entry5.o)
    0x080000c8   0x080000c8   0x00000000   Code   RO         4499    .ARM.Collect$$$$00000008  mc_p.l(entry7b.o)
    0x080000c8   0x080000c8   0x00000000   Code   RO         4501    .ARM.Collect$$$$0000000A  mc_p.l(entry8b.o)
    0x080000c8   0x080000c8   0x00000008   Code   RO         4502    .ARM.Collect$$$$0000000B  mc_p.l(entry9a.o)
    0x080000d0   0x080000d0   0x00000000   Code   RO         4504    .ARM.Collect$$$$0000000D  mc_p.l(entry10a.o)
    0x080000d0   0x080000d0   0x00000000   Code   RO         4506    .ARM.Collect$$$$0000000F  mc_p.l(entry11a.o)
    0x080000d0   0x080000d0   0x00000004   Code   RO         4495    .ARM.Collect$$$$00002712  mc_p.l(entry2.o)
    0x080000d4   0x080000d4   0x0000001c   Code   RO            4    .text               startup_stm32l051xx.o
    0x080000f0   0x080000f0   0x0000002c   Code   RO         4471    .text               mc_p.l(uidiv.o)
    0x0800011c   0x0800011c   0x00000028   Code   RO         4473    .text               mc_p.l(idiv.o)
    0x08000144   0x08000144   0x00000060   Code   RO         4475    .text               mc_p.l(uldiv.o)
    0x080001a4   0x080001a4   0x00000024   Code   RO         4479    .text               mc_p.l(rand.o)
    0x080001c8   0x080001c8   0x00000040   Code   RO         4484    .text               mc_p.l(memmovea.o)
    0x08000208   0x08000208   0x00000024   Code   RO         4486    .text               mc_p.l(memseta.o)
    0x0800022c   0x0800022c   0x00000014   Code   RO         4492    .text               mc_p.l(uread4.o)
    0x08000240   0x08000240   0x00000020   Code   RO         4508    .text               mc_p.l(llshl.o)
    0x08000260   0x08000260   0x00000022   Code   RO         4510    .text               mc_p.l(llushr.o)
    0x08000282   0x08000282   0x00000002   PAD
    0x08000284   0x08000284   0x00000024   Code   RO         4512    .text               mc_p.l(init.o)
    0x080002a8   0x080002a8   0x000001e8   Code   RO           15    i.ADXL362FifoProcess  adxl362.o
    0x08000490   0x08000490   0x00000040   Code   RO           16    i.ADXL362FifoRead   adxl362.o
    0x080004d0   0x080004d0   0x00000048   Code   RO           17    i.ADXL362RegisterRead  adxl362.o
    0x08000518   0x08000518   0x00000044   Code   RO           18    i.ADXL362RegisterWrite  adxl362.o
    0x0800055c   0x0800055c   0x00000180   Code   RO           19    i.ADXL362_Init      adxl362.o
    0x080006dc   0x080006dc   0x000002e4   Code   RO         3889    i.AES_general_SW_enc  STM32CryptographicV3.0.0_CM0PLUS_KEIL_otslsm1elfspf.lib(crypto.o)
    0x080009c0   0x080009c0   0x00000170   Code   RO         3892    i.AES_keyschedule_enc_LL  STM32CryptographicV3.0.0_CM0PLUS_KEIL_otslsm1elfspf.lib(crypto.o)
    0x08000b30   0x08000b30   0x00000010   Code   RO          263    i.CC1101ClrTXBuff   cc1101.o
    0x08000b40   0x08000b40   0x00000048   Code   RO          265    i.CC1101Init        cc1101.o
    0x08000b88   0x08000b88   0x0000003c   Code   RO          268    i.CC1101ReadReg     cc1101.o
    0x08000bc4   0x08000bc4   0x0000005a   Code   RO          272    i.CC1101Reset       cc1101.o
    0x08000c1e   0x08000c1e   0x00000002   PAD
    0x08000c20   0x08000c20   0x00000104   Code   RO          274    i.CC1101SendHandler  cc1101.o
    0x08000d24   0x08000d24   0x000000dc   Code   RO          275    i.CC1101SendPacket  cc1101.o
    0x08000e00   0x08000e00   0x00000014   Code   RO          277    i.CC1101SetAddress  cc1101.o
    0x08000e14   0x08000e14   0x00000016   Code   RO          279    i.CC1101SetSYNC     cc1101.o
    0x08000e2a   0x08000e2a   0x00000036   Code   RO          280    i.CC1101SetTRMode   cc1101.o
    0x08000e60   0x08000e60   0x00000026   Code   RO          281    i.CC1101SetWORMode  cc1101.o
    0x08000e86   0x08000e86   0x0000002c   Code   RO          282    i.CC1101WORInit     cc1101.o
    0x08000eb2   0x08000eb2   0x00000002   PAD
    0x08000eb4   0x08000eb4   0x0000002c   Code   RO          283    i.CC1101WriteCmd    cc1101.o
    0x08000ee0   0x08000ee0   0x00000048   Code   RO          284    i.CC1101WriteMultiReg  cc1101.o
    0x08000f28   0x08000f28   0x00000038   Code   RO          285    i.CC1101WriteReg    cc1101.o
    0x08000f60   0x08000f60   0x0000004a   Code   RO          286    i.CC1101_GDO_DeInit  cc1101.o
    0x08000faa   0x08000faa   0x00000090   Code   RO          287    i.CC1101_GDO_Init   cc1101.o
    0x0800103a   0x0800103a   0x00000038   Code   RO         1296    i.CRC_Handle_16     stm32l0xx_hal_crc.o
    0x08001072   0x08001072   0x00000080   Code   RO         1297    i.CRC_Handle_8      stm32l0xx_hal_crc.o
    0x080010f2   0x080010f2   0x00000002   PAD
    0x080010f4   0x080010f4   0x00000048   Code   RO          723    i.DATAEEPROM_Program  main.o
    0x0800113c   0x0800113c   0x000000d4   Code   RO         3940    i.DRBG_AES128_Bcc   STM32CryptographicV3.0.0_CM0PLUS_KEIL_otslsm1elfspf.lib(crypto.o)
    0x08001210   0x08001210   0x000000d4   Code   RO         3941    i.DRBG_AES128_Block_cipher_df  STM32CryptographicV3.0.0_CM0PLUS_KEIL_otslsm1elfspf.lib(crypto.o)
    0x080012e4   0x080012e4   0x00000082   Code   RO         3942    i.DRBG_AES128_Update  STM32CryptographicV3.0.0_CM0PLUS_KEIL_otslsm1elfspf.lib(crypto.o)
    0x08001366   0x08001366   0x00000002   PAD
    0x08001368   0x08001368   0x00000024   Code   RO         1139    i.EXTI0_1_IRQHandler  stm32l0xx_it.o
    0x0800138c   0x0800138c   0x00000024   Code   RO         1140    i.EXTI2_3_IRQHandler  stm32l0xx_it.o
    0x080013b0   0x080013b0   0x00000024   Code   RO         1141    i.EXTI4_15_IRQHandler  stm32l0xx_it.o
    0x080013d4   0x080013d4   0x00000060   Code   RO         1041    i.Error_Callback    usart.o
    0x08001434   0x08001434   0x0000001c   Code   RO          725    i.Error_Handler     main.o
    0x08001450   0x08001450   0x00000090   Code   RO         2313    i.FLASH_SetErrorCode  stm32l0xx_hal_flash.o
    0x080014e0   0x080014e0   0x00000070   Code   RO         2314    i.FLASH_WaitForLastOperation  stm32l0xx_hal_flash.o
    0x08001550   0x08001550   0x00000038   Code   RO          726    i.Get_SerialNum     main.o
    0x08001588   0x08001588   0x00000050   Code   RO         1364    i.HAL_CRCEx_Polynomial_Set  stm32l0xx_hal_crc_ex.o
    0x080015d8   0x080015d8   0x0000004a   Code   RO         1299    i.HAL_CRC_Calculate  stm32l0xx_hal_crc.o
    0x08001622   0x08001622   0x00000034   Code   RO         1300    i.HAL_CRC_DeInit    stm32l0xx_hal_crc.o
    0x08001656   0x08001656   0x00000002   PAD
    0x08001658   0x08001658   0x0000007c   Code   RO         1302    i.HAL_CRC_Init      stm32l0xx_hal_crc.o
    0x080016d4   0x080016d4   0x0000001c   Code   RO          868    i.HAL_CRC_MspDeInit  crc.o
    0x080016f0   0x080016f0   0x00000024   Code   RO          869    i.HAL_CRC_MspInit   crc.o
    0x08001714   0x08001714   0x00000024   Code   RO         1403    i.HAL_Delay         stm32l0xx_hal.o
    0x08001738   0x08001738   0x00000010   Code   RO         2411    i.HAL_FLASHEx_DATAEEPROM_DisableFixedTimeProgram  stm32l0xx_hal_flash_ex.o
    0x08001748   0x08001748   0x00000010   Code   RO         2412    i.HAL_FLASHEx_DATAEEPROM_EnableFixedTimeProgram  stm32l0xx_hal_flash_ex.o
    0x08001758   0x08001758   0x00000028   Code   RO         2413    i.HAL_FLASHEx_DATAEEPROM_Erase  stm32l0xx_hal_flash_ex.o
    0x08001780   0x08001780   0x00000014   Code   RO         2414    i.HAL_FLASHEx_DATAEEPROM_Lock  stm32l0xx_hal_flash_ex.o
    0x08001794   0x08001794   0x00000054   Code   RO         2415    i.HAL_FLASHEx_DATAEEPROM_Program  stm32l0xx_hal_flash_ex.o
    0x080017e8   0x080017e8   0x00000034   Code   RO         2416    i.HAL_FLASHEx_DATAEEPROM_Unlock  stm32l0xx_hal_flash_ex.o
    0x0800181c   0x0800181c   0x0000000a   Code   RO         2521    i.HAL_GPIO_ReadPin  stm32l0xx_hal_gpio.o
    0x08001826   0x08001826   0x00000010   Code   RO         2522    i.HAL_GPIO_TogglePin  stm32l0xx_hal_gpio.o
    0x08001836   0x08001836   0x0000000c   Code   RO         2523    i.HAL_GPIO_WritePin  stm32l0xx_hal_gpio.o
    0x08001842   0x08001842   0x00000002   PAD
    0x08001844   0x08001844   0x0000000c   Code   RO         1407    i.HAL_GetTick       stm32l0xx_hal.o
    0x08001850   0x08001850   0x00000010   Code   RO         1413    i.HAL_IncTick       stm32l0xx_hal.o
    0x08001860   0x08001860   0x00000028   Code   RO         1414    i.HAL_Init          stm32l0xx_hal.o
    0x08001888   0x08001888   0x00000044   Code   RO         1415    i.HAL_InitTick      stm32l0xx_hal.o
    0x080018cc   0x080018cc   0x00000018   Code   RO         1228    i.HAL_MspInit       stm32l0xx_hal_msp.o
    0x080018e4   0x080018e4   0x00000018   Code   RO         2848    i.HAL_NVIC_EnableIRQ  stm32l0xx_hal_cortex.o
    0x080018fc   0x080018fc   0x00000008   Code   RO         2852    i.HAL_NVIC_SetPriority  stm32l0xx_hal_cortex.o
    0x08001904   0x08001904   0x00000010   Code   RO         2790    i.HAL_PWREx_EnableFastWakeUp  stm32l0xx_hal_pwr_ex.o
    0x08001914   0x08001914   0x00000010   Code   RO         2792    i.HAL_PWREx_EnableUltraLowPower  stm32l0xx_hal_pwr_ex.o
    0x08001924   0x08001924   0x00000010   Code   RO         2678    i.HAL_PWR_EnableBkUpAccess  stm32l0xx_hal_pwr.o
    0x08001934   0x08001934   0x00000064   Code   RO         2685    i.HAL_PWR_EnterSTOPMode  stm32l0xx_hal_pwr.o
    0x08001998   0x08001998   0x00000164   Code   RO         2209    i.HAL_RCCEx_PeriphCLKConfig  stm32l0xx_hal_rcc_ex.o
    0x08001afc   0x08001afc   0x0000019c   Code   RO         2109    i.HAL_RCC_ClockConfig  stm32l0xx_hal_rcc.o
    0x08001c98   0x08001c98   0x00000078   Code   RO         2117    i.HAL_RCC_GetSysClockFreq  stm32l0xx_hal_rcc.o
    0x08001d10   0x08001d10   0x00000426   Code   RO         2120    i.HAL_RCC_OscConfig  stm32l0xx_hal_rcc.o
    0x08002136   0x08002136   0x00000002   PAD
    0x08002138   0x08002138   0x000000f8   Code   RO         3422    i.HAL_RTCEx_SetWakeUpTimer_IT  stm32l0xx_hal_rtc_ex.o
    0x08002230   0x08002230   0x0000003c   Code   RO          929    i.HAL_RTCEx_WakeUpTimerEventCallback  rtc.o
    0x0800226c   0x0800226c   0x00000038   Code   RO         3428    i.HAL_RTCEx_WakeUpTimerIRQHandler  stm32l0xx_hal_rtc_ex.o
    0x080022a4   0x080022a4   0x000000bc   Code   RO         3246    i.HAL_RTC_Init      stm32l0xx_hal_rtc.o
    0x08002360   0x08002360   0x00000030   Code   RO          931    i.HAL_RTC_MspInit   rtc.o
    0x08002390   0x08002390   0x00000034   Code   RO         3254    i.HAL_RTC_WaitForSynchro  stm32l0xx_hal_rtc.o
    0x080023c4   0x080023c4   0x00000010   Code   RO         1418    i.HAL_ResumeTick    stm32l0xx_hal.o
    0x080023d4   0x080023d4   0x00000030   Code   RO         2856    i.HAL_SYSTICK_Config  stm32l0xx_hal_cortex.o
    0x08002404   0x08002404   0x00000010   Code   RO         1424    i.HAL_SuspendTick   stm32l0xx_hal.o
    0x08002414   0x08002414   0x00000002   Code   RO         1142    i.HardFault_Handler  stm32l0xx_it.o
    0x08002416   0x08002416   0x00000002   PAD
    0x08002418   0x08002418   0x00000018   Code   RO          727    i.LED_Blinking      main.o
    0x08002430   0x08002430   0x00000018   Code   RO         1042    i.LL_APB2_GRP1_EnableClock  usart.o
    0x08002448   0x08002448   0x000000a0   Code   RO         3199    i.LL_EXTI_Init      stm32l0xx_ll_exti.o
    0x080024e8   0x080024e8   0x00000014   Code   RO         1143    i.LL_EXTI_IsActiveFlag_0_31  stm32l0xx_it.o
    0x080024fc   0x080024fc   0x000000ae   Code   RO         1249    i.LL_GPIO_Init      stm32l0xx_ll_gpio.o
    0x080025aa   0x080025aa   0x00000014   Code   RO          288    i.LL_GPIO_SetPinMode  cc1101.o
    0x080025be   0x080025be   0x00000014   Code   RO          812    i.LL_GPIO_SetPinMode  gpio.o
    0x080025d2   0x080025d2   0x00000014   Code   RO          289    i.LL_GPIO_SetPinPull  cc1101.o
    0x080025e6   0x080025e6   0x00000014   Code   RO          813    i.LL_GPIO_SetPinPull  gpio.o
    0x080025fa   0x080025fa   0x00000002   PAD
    0x080025fc   0x080025fc   0x00000018   Code   RO          290    i.LL_IOP_GRP1_EnableClock  cc1101.o
    0x08002614   0x08002614   0x00000018   Code   RO          814    i.LL_IOP_GRP1_EnableClock  gpio.o
    0x0800262c   0x0800262c   0x00000018   Code   RO          975    i.LL_IOP_GRP1_EnableClock  spi.o
    0x08002644   0x08002644   0x00000018   Code   RO         1043    i.LL_IOP_GRP1_EnableClock  usart.o
    0x0800265c   0x0800265c   0x00000090   Code   RO         3028    i.LL_RCC_GetUSARTClockFreq  stm32l0xx_ll_rcc.o
    0x080026ec   0x080026ec   0x00000010   Code   RO         3029    i.LL_RCC_GetUSARTClockSource  stm32l0xx_ll_rcc.o
    0x080026fc   0x080026fc   0x00000010   Code   RO         3030    i.LL_RCC_HSI_IsReady  stm32l0xx_ll_rcc.o
    0x0800270c   0x0800270c   0x00000010   Code   RO         3031    i.LL_RCC_IsActiveFlag_HSIDIV  stm32l0xx_ll_rcc.o
    0x0800271c   0x0800271c   0x00000010   Code   RO         3032    i.LL_RCC_LSE_IsReady  stm32l0xx_ll_rcc.o
    0x0800272c   0x0800272c   0x00000044   Code   RO         3612    i.LL_SPI_DeInit     stm32l0xx_ll_spi.o
    0x08002770   0x08002770   0x0000006c   Code   RO         3613    i.LL_SPI_Init       stm32l0xx_ll_spi.o
    0x080027dc   0x080027dc   0x00000020   Code   RO          291    i.LL_SYSCFG_SetEXTISource  cc1101.o
    0x080027fc   0x080027fc   0x00000020   Code   RO          815    i.LL_SYSCFG_SetEXTISource  gpio.o
    0x0800281c   0x0800281c   0x00000048   Code   RO         3745    i.LL_USART_DeInit   stm32l0xx_ll_usart.o
    0x08002864   0x08002864   0x00000018   Code   RO         1044    i.LL_USART_EnableIT_ERROR  usart.o
    0x0800287c   0x0800287c   0x00000018   Code   RO         1045    i.LL_USART_EnableIT_RXNE  usart.o
    0x08002894   0x08002894   0x000000a8   Code   RO         3746    i.LL_USART_Init     stm32l0xx_ll_usart.o
    0x0800293c   0x0800293c   0x00000030   Code   RO          870    i.MX_CRC_Init       crc.o
    0x0800296c   0x0800296c   0x0000025c   Code   RO          816    i.MX_GPIO_Init      gpio.o
    0x08002bc8   0x08002bc8   0x00000034   Code   RO          906    i.MX_IWDG_Init      iwdg.o
    0x08002bfc   0x08002bfc   0x00000048   Code   RO          932    i.MX_RTC_Init       rtc.o
    0x08002c44   0x08002c44   0x00000070   Code   RO          976    i.MX_SPI1_DeInit    spi.o
    0x08002cb4   0x08002cb4   0x000000d0   Code   RO          977    i.MX_SPI1_Init      spi.o
    0x08002d84   0x08002d84   0x00000080   Code   RO          978    i.MX_SPI2_DeInit    spi.o
    0x08002e04   0x08002e04   0x000000c8   Code   RO          979    i.MX_SPI2_Init      spi.o
    0x08002ecc   0x08002ecc   0x00000064   Code   RO         1046    i.MX_USART1_UART_DeInit  usart.o
    0x08002f30   0x08002f30   0x000000b4   Code   RO         1047    i.MX_USART1_UART_Init  usart.o
    0x08002fe4   0x08002fe4   0x00000002   Code   RO         1144    i.NMI_Handler       stm32l0xx_it.o
    0x08002fe6   0x08002fe6   0x00000002   Code   RO         1145    i.PendSV_Handler    stm32l0xx_it.o
    0x08002fe8   0x08002fe8   0x0000001c   Code   RO         3033    i.RCC_GetHCLKClockFreq  stm32l0xx_ll_rcc.o
    0x08003004   0x08003004   0x00000018   Code   RO         3034    i.RCC_GetPCLK1ClockFreq  stm32l0xx_ll_rcc.o
    0x0800301c   0x0800301c   0x00000018   Code   RO         3035    i.RCC_GetPCLK2ClockFreq  stm32l0xx_ll_rcc.o
    0x08003034   0x08003034   0x00000084   Code   RO         3036    i.RCC_GetSystemClockFreq  stm32l0xx_ll_rcc.o
    0x080030b8   0x080030b8   0x00000048   Code   RO          292    i.RFIDInitial       cc1101.o
    0x08003100   0x08003100   0x0000003c   Code   RO          498    i.RNG_Gen           rand_bytes_gen.o
    0x0800313c   0x0800313c   0x00000074   Code   RO          499    i.RNG_Init          rand_bytes_gen.o
    0x080031b0   0x080031b0   0x00000034   Code   RO         4028    i.RNGfree           STM32CryptographicV3.0.0_CM0PLUS_KEIL_otslsm1elfspf.lib(crypto.o)
    0x080031e4   0x080031e4   0x000000a8   Code   RO         4029    i.RNGgenBytes       STM32CryptographicV3.0.0_CM0PLUS_KEIL_otslsm1elfspf.lib(crypto.o)
    0x0800328c   0x0800328c   0x000000d8   Code   RO         4031    i.RNGinit           STM32CryptographicV3.0.0_CM0PLUS_KEIL_otslsm1elfspf.lib(crypto.o)
    0x08003364   0x08003364   0x00000038   Code   RO         3257    i.RTC_EnterInitMode  stm32l0xx_hal_rtc.o
    0x0800339c   0x0800339c   0x00000010   Code   RO         1146    i.RTC_IRQHandler    stm32l0xx_it.o
    0x080033ac   0x080033ac   0x00000016   Code   RO          980    i.SPI_ExchangeByte  spi.o
    0x080033c2   0x080033c2   0x00000002   Code   RO         1147    i.SVC_Handler       stm32l0xx_it.o
    0x080033c4   0x080033c4   0x0000007c   Code   RO          729    i.Show_Message      main.o
    0x08003440   0x08003440   0x00000034   Code   RO          981    i.SpiFunction       spi.o
    0x08003474   0x08003474   0x00000008   Code   RO         1148    i.SysTick_Handler   stm32l0xx_it.o
    0x0800347c   0x0800347c   0x000000a0   Code   RO          730    i.SystemClock_Config  main.o
    0x0800351c   0x0800351c   0x00000054   Code   RO         3791    i.SystemInit        system_stm32l0xx.o
    0x08003570   0x08003570   0x000000a0   Code   RO          731    i.System_Initial    main.o
    0x08003610   0x08003610   0x00000024   Code   RO         1149    i.USART1_IRQHandler  stm32l0xx_it.o
    0x08003634   0x08003634   0x00000038   Code   RO         1049    i.USART_CharReception_Callback  usart.o
    0x0800366c   0x0800366c   0x00000032   Code   RO         4466    i.__ARM_common_ll_muluu  STM32CryptographicV3.0.0_CM0PLUS_KEIL_otslsm1elfspf.lib(crypto.o)
    0x0800369e   0x0800369e   0x00000002   PAD
    0x080036a0   0x080036a0   0x00000020   Code   RO          293    i.__NVIC_DisableIRQ  cc1101.o
    0x080036c0   0x080036c0   0x00000020   Code   RO         1050    i.__NVIC_DisableIRQ  usart.o
    0x080036e0   0x080036e0   0x00000018   Code   RO          294    i.__NVIC_EnableIRQ  cc1101.o
    0x080036f8   0x080036f8   0x00000018   Code   RO          817    i.__NVIC_EnableIRQ  gpio.o
    0x08003710   0x08003710   0x00000044   Code   RO          295    i.__NVIC_SetPriority  cc1101.o
    0x08003754   0x08003754   0x00000044   Code   RO          818    i.__NVIC_SetPriority  gpio.o
    0x08003798   0x08003798   0x00000044   Code   RO         2858    i.__NVIC_SetPriority  stm32l0xx_hal_cortex.o
    0x080037dc   0x080037dc   0x0000000e   Code   RO         4515    i.__scatterload_copy  mc_p.l(handlers.o)
    0x080037ea   0x080037ea   0x00000002   Code   RO         4516    i.__scatterload_null  mc_p.l(handlers.o)
    0x080037ec   0x080037ec   0x0000000e   Code   RO         4517    i.__scatterload_zeroinit  mc_p.l(handlers.o)
    0x080037fa   0x080037fa   0x00000002   PAD
    0x080037fc   0x080037fc   0x0000021c   Code   RO         4094    i.crl_DRBG_AES128_Generate  STM32CryptographicV3.0.0_CM0PLUS_KEIL_otslsm1elfspf.lib(crypto.o)
    0x08003a18   0x08003a18   0x000001c0   Code   RO          732    i.main              main.o
    0x08003bd8   0x08003bd8   0x0000005e   Data   RO          297    .constdata          cc1101.o
    0x08003c36   0x08003c36   0x00000019   Data   RO         3792    .constdata          system_stm32l0xx.o
    0x08003c4f   0x08003c4f   0x00000008   Data   RO         3793    .constdata          system_stm32l0xx.o
    0x08003c57   0x08003c57   0x00000001   PAD
    0x08003c58   0x08003c58   0x00001b64   Data   RO         4135    .constdata          STM32CryptographicV3.0.0_CM0PLUS_KEIL_otslsm1elfspf.lib(crypto.o)
    0x080057bc   0x080057bc   0x00000020   Data   RO         4514    Region$$Table       anon$$obj.o


    Execution Region RW_IRAM1 (Exec base: 0x20000000, Load base: 0x080057dc, Size: 0x00000f78, Max: 0x00002000, ABSOLUTE)

    Exec Addr    Load Addr    Size         Type   Attr      Idx    E Section Name        Object

    0x20000000   0x080057dc   0x00000004   Data   RW           22    .data               adxl362.o
    0x20000004   0x080057e0   0x0000000a   Data   RW          298    .data               cc1101.o
    0x2000000e   0x080057ea   0x00000002   PAD
    0x20000010   0x080057ec   0x00000032   Data   RW          501    .data               rand_bytes_gen.o
    0x20000042   0x0800581e   0x00000004   Data   RW          734    .data               main.o
    0x20000046   0x08005822   0x00000003   Data   RW          934    .data               rtc.o
    0x20000049   0x08005825   0x00000003   PAD
    0x2000004c   0x08005828   0x0000000c   Data   RW         1425    .data               stm32l0xx_hal.o
    0x20000058   0x08005834   0x00000004   Data   RW         3794    .data               system_stm32l0xx.o
    0x2000005c   0x08005838   0x00000004   Data   RW         4480    .data               mc_p.l(rand.o)
    0x20000060        -       0x0000089c   Zero   RW           21    .bss                adxl362.o
    0x200008fc        -       0x0000018c   Zero   RW          296    .bss                cc1101.o
    0x20000a88        -       0x00000064   Zero   RW          500    .bss                rand_bytes_gen.o
    0x20000aec        -       0x00000010   Zero   RW          733    .bss                main.o
    0x20000afc        -       0x00000024   Zero   RW          871    .bss                crc.o
    0x20000b20        -       0x00000024   Zero   RW          933    .bss                rtc.o
    0x20000b44        -       0x0000001a   Zero   RW         1052    .bss                usart.o
    0x20000b5e   0x0800583c   0x00000002   PAD
    0x20000b60        -       0x00000018   Zero   RW         2326    .bss                stm32l0xx_hal_flash.o
    0x20000b78        -       0x00000400   Zero   RW            1    STACK               startup_stm32l051xx.o


==============================================================================

Image component sizes


      Code (inc. data)   RO Data    RW Data    ZI Data      Debug   Object Name

      1076         68          0          4       2204     305894   adxl362.o
      1578         98         94         10        396      37328   cc1101.o
       112         24          0          0         36       1963   crc.o
       792         32          0          0          0      17467   gpio.o
        52         22          0          0          0       2587   iwdg.o
      1072        106          0          4         16       9517   main.o
       176         24          0         50        100       2881   rand_bytes_gen.o
       180         28          0          3         36       2400   rtc.o
       746         50          0          0          0      18918   spi.o
        28          8        192          0       1024        636   startup_stm32l051xx.o
       204         36          0         12          0       9628   stm32l0xx_hal.o
       148         24          0          0          0      12117   stm32l0xx_hal_cortex.o
       434          6          0          0          0       4276   stm32l0xx_hal_crc.o
        80          0          0          0          0       1323   stm32l0xx_hal_crc_ex.o
       256         16          0          0         24       1730   stm32l0xx_hal_flash.o
       228         44          0          0          0       4115   stm32l0xx_hal_flash_ex.o
        38          0          0          0          0       2276   stm32l0xx_hal_gpio.o
        24          4          0          0          0        442   stm32l0xx_hal_msp.o
       116         16          0          0          0       1267   stm32l0xx_hal_pwr.o
        32          8          0          0          0       1045   stm32l0xx_hal_pwr_ex.o
      1594         66          0          0          0       4510   stm32l0xx_hal_rcc.o
       356         14          0          0          0       1436   stm32l0xx_hal_rcc_ex.o
       296          4          0          0          0       2812   stm32l0xx_hal_rtc.o
       304         18          0          0          0       2580   stm32l0xx_hal_rtc_ex.o
       196         44          0          0          0      26692   stm32l0xx_it.o
       160          4          0          0          0       5087   stm32l0xx_ll_exti.o
       174          0          0          0          0       6899   stm32l0xx_ll_gpio.o
       416         76          0          0          0      19431   stm32l0xx_ll_rcc.o
       176         18          0          0          0      18838   stm32l0xx_ll_spi.o
       240         32          0          0          0      22634   stm32l0xx_ll_usart.o
        84         18         33          4          0       1243   system_stm32l0xx.o
       560         56          0          0         26      40290   usart.o

    ----------------------------------------------------------------------
     11944        964        352         92       3864     590262   Object Totals
         0          0         32          0          0          0   (incl. Generated)
        16          0          1          5          2          0   (incl. Padding)

    ----------------------------------------------------------------------

      Code (inc. data)   RO Data    RW Data    ZI Data      Debug   Library Member Name

      2688         86       7012          0          0        852   crypto.o
         0          0          0          0          0          0   entry.o
         0          0          0          0          0          0   entry10a.o
         0          0          0          0          0          0   entry11a.o
         8          4          0          0          0          0   entry2.o
         4          0          0          0          0          0   entry5.o
         0          0          0          0          0          0   entry7b.o
         0          0          0          0          0          0   entry8b.o
         8          4          0          0          0          0   entry9a.o
        30          0          0          0          0          0   handlers.o
        40          0          0          0          0         72   idiv.o
        36          8          0          0          0         68   init.o
        32          0          0          0          0         68   llshl.o
        34          0          0          0          0         68   llushr.o
        64          0          0          0          0         68   memmovea.o
        36          0          0          0          0        100   memseta.o
        36         12          0          4          0        120   rand.o
        44          0          0          0          0         72   uidiv.o
        96          0          0          0          0         84   uldiv.o
        20          0          0          0          0         60   uread4.o

    ----------------------------------------------------------------------
      3184        114       7012          4          0       1632   Library Totals
         8          0          0          0          0          0   (incl. Padding)

    ----------------------------------------------------------------------

      Code (inc. data)   RO Data    RW Data    ZI Data      Debug   Library Name

      2688         86       7012          0          0        852   STM32CryptographicV3.0.0_CM0PLUS_KEIL_otslsm1elfspf.lib
       488         28          0          4          0        780   mc_p.l

    ----------------------------------------------------------------------
      3184        114       7012          4          0       1632   Library Totals

    ----------------------------------------------------------------------

==============================================================================


      Code (inc. data)   RO Data    RW Data    ZI Data      Debug   

     15128       1078       7364         96       3864     585314   Grand Totals
     15128       1078       7364         96       3864     585314   ELF Image Totals
     15128       1078       7364         96          0          0   ROM Totals

==============================================================================

    Total RO  Size (Code + RO Data)                22492 (  21.96kB)
    Total RW  Size (RW Data + ZI Data)              3960 (   3.87kB)
    Total ROM Size (Code + RO Data + RW Data)      22588 (  22.06kB)

==============================================================================

